((dp0
S'arm_dbg_args'
p1
S'-via:"C:\\Users\\Flash\\Documents\\mobile_workspace\\GardenWars\\build_gardenwars_vc10\\GardenWars_vc10_arm_debug.via" -qemu'
p2
sS'game-icf'
p3
S''
p4
sS'dist'
p5
NsS'module_path_append'
p6
NsS'global_path'
p7
S'c:\\users\\flash\\documents\\mobile_workspace'
p8
sS'system_path'
p9
S'c:\\marmalade\\6.0\\s3e\\makefile_builder'
p10
sS'use_prebuilt'
p11
NsS'arm_rel_rtsm_args'
p12
S'-via:"C:\\Users\\Flash\\Documents\\mobile_workspace\\GardenWars\\build_gardenwars_vc10\\GardenWars_vc10_arm_release.via" -qemu'
p13
sS'amd64'
p14
NsS'debug'
p15
NsS'open_with_wmlaunchpad'
p16
I01
sS'gcc_dbg_args'
p17
S'-via:"C:\\Users\\Flash\\Documents\\mobile_workspace\\GardenWars\\build_gardenwars_vc10\\GardenWars_vc10_gcc_debug.via" -qemu'
p18
sS'x86_dbg_exe'
p19
S'c:/marmalade/6.0/s3e\\win32\\s3e_simulator_debug.exe'
p20
sS'disable-runtime-checks'
p21
NsS'no-make'
p22
NsS'optimise-size'
p23
NsS'line-width'
p24
I80
sS'output-name-debug'
p25
g4
sS'arm-fpu'
p26
g4
sS'psp'
p27
NsS'proj_name'
p28
S'GardenWars_vc10'
p29
sS'rvct-version'
p30
S'none'
p31
sS'compiler'
p32
g4
sS'execute'
p33
NsS'compile-static'
p34
NsS'msvc-project'
p35
NsS'buildenv'
p36
g4
sS'release'
p37
NsS'module_path'
p38
NsS'using_perforce'
p39
I00
sS'shared-arm-lib'
p40
NsS'arm-cpu'
p41
g4
sS'compile-thumb'
p42
NsS'no-ide'
p43
NsS'msvc-version'
p44
S'6.0'
p45
sS'arm'
p46
NsS'builddir'
p47
g4
sS'compile-debug-as-release'
p48
I0
sS'brief'
p49
NsS'dll'
p50
NsS'version'
p51
NsS'ccache'
p52
I0
sS'offline'
p53
NsS'ios-version'
p54
g4
sS'quick'
p55
NsS'gcc_rel_rtsm_args'
p56
S'-via:"C:\\Users\\Flash\\Documents\\mobile_workspace\\GardenWars\\build_gardenwars_vc10\\GardenWars_vc10_gcc_release.via" -qemu'
p57
sS'done_defaults'
p58
I1
sS'path'
p59
NsS's3e-data-dir'
p60
S'C:/Users/Flash/Documents/mobile_workspace/GardenWars\\data'
p61
sS'enable-exceptions'
p62
NsS'osx-dll'
p63
NsS'extension'
p64
g4
sS'no-vc6'
p65
NsS'non-interactive'
p66
NsS'win32-console'
p67
NsS'nds'
p68
NsS'dist-format'
p69
g4
sS's3e-force-arch'
p70
NsS'dump_defines'
p71
NsS'verbose'
p72
I0
sS'psp-minis'
p73
NsS'gcc-version'
p74
g4
sS'x86_dbg_args'
p75
S'-via:"C:\\Users\\Flash\\Documents\\mobile_workspace\\GardenWars\\build_gardenwars_vc10\\GardenWars_vc10_debug.via"'
p76
sS'arm-debugger'
p77
g4
sS'use_temp_extension'
p78
NsS'log'
p79
NsS'no-strip'
p80
NsS'rebuild'
p81
NsS'win32-simulator-dll'
p82
NsS'strict'
p83
NsS'mips_dbg_args'
p84
S'../../tools/DeployTool/DeployTool.exe --dir "C:\\Users\\Flash\\Documents\\mobile_workspace\\GardenWars\\build_gardenwars_vc10"'
p85
sS'enable-global-path'
p86
NsS'iphone'
p87
NsS'dist-dir'
p88
g4
sS'jflags'
p89
NsS'external-compiler'
p90
NsS'no-distcc'
p91
NsS'preinclude'
p92
NsS'using_sdk'
p93
I01
sS'nologo'
p94
NsS'warn-level'
p95
I2
sS'mips_dbg_exe'
p96
S'c:\\marmalade\\6.0\\s3e\\makefile_builder\\tool_launcher.exe'
p97
sS'mkb_in'
p98
S'C:/Users/Flash/Documents/mobile_workspace/GardenWars/GardenWars.mkb'
p99
sS'arm_dbg_exe'
p100
S'c:/marmalade/6.0/s3e\\bin\\armdebug.exe'
p101
sS'list-targets'
p102
NsS'arm_rel_exe'
p103
g97
sS'arm_rel_args'
p104
g85
sS'distcc'
p105
NsS'default-buildenv'
p106
S'VC10'
p107
sS'x86_rel_exe'
p108
g20
sS'preprocess-java'
p109
NsS'mips_rel_args'
p110
g85
sS'defines'
p111
NsS'lib'
p112
NsS'global_argv'
p113
(lp114
S'C:\\Marmalade\\6.0\\s3e\\makefile_builder\\mkb.py'
p115
aS'--open-with-wmlaunchpad'
p116
aS'C:\\Users\\Flash\\Documents\\mobile_workspace\\GardenWars\\GardenWars.mkb'
p117
asS'make'
p118
NsS'optimise-speed'
p119
NsS'internal'
p120
NsS'enable-stdinc'
p121
NsS'deploy-only'
p122
NsS'x86'
p123
NsS'deploy'
p124
g4
sS'x86_run_exe'
p125
S'c:/marmalade/6.0/s3e\\win32\\s3e_console.exe'
p126
sS'x86_rel_args'
p127
S'-via:"C:\\Users\\Flash\\Documents\\mobile_workspace\\GardenWars\\build_gardenwars_vc10\\GardenWars_vc10_release.via"'
p128
sS'gcc_rel_args'
p129
g85
sS'mips'
p130
NsS'incredibuild'
p131
NsS'strict-compile'
p132
NsS'use-auto-subdirs'
p133
NsS'mips_rel_exe'
p134
g97
sS'app-icf'
p135
g4
sS'deployargs'
p136
NsS'mkf_in'
p137
(lp138
S'c:\\marmalade\\6.0\\modules\\iw2d\\iw2d.mkf'
p139
aS'c:\\marmalade\\6.0\\modules\\iwgx\\iwgx.mkf'
p140
aS'c:\\marmalade\\6.0\\modules\\iwgeom\\iwgeom.mkf'
p141
aS'c:\\marmalade\\6.0\\modules\\iwutil\\iwutil.mkf'
p142
aVc:\u005cusers\u005cflash\u005cappdata\u005croaming\u005cmarmalade\u005cpackages\u005c6.0.1\u005clibjpeg_6b\u005clibjpeg.mkf
p143
aVc:\u005cusers\u005cflash\u005cappdata\u005croaming\u005cmarmalade\u005cpackages\u005c6.0.1\u005clibpng_1.2.34\u005clibpng.mkf
p144
aVc:\u005cusers\u005cflash\u005cappdata\u005croaming\u005cmarmalade\u005cpackages\u005c6.0.1\u005czlib_1.2.4\u005czlib.mkf
p145
aS'c:\\marmalade\\6.0\\modules\\iwresmanager\\iwresmanager.mkf'
p146
aS'c:\\marmalade\\6.0\\modules\\iwgl\\iwgl.mkf'
p147
aS'c:\\marmalade\\6.0\\modules\\iwgxfont\\iwgxfont.mkf'
p148
asS'strict-mkb'
p149
NsS'executeargs'
p150
NsS'clean'
p151
NsS'no-asm'
p152
NsS'output-name'
p153
g4
sS'no-modules'
p154
NsS'find_define'
p155
g4
s(dp156
S'c:\\marmalade\\6.0\\s3e\\makefile_builder\\templates\\vc7_suo.pyc'
p157
F1334978828.0
sS'c:\\marmalade\\6.0\\s3e\\makefile_builder\\mkb_util.pyc'
p158
F1334978828.0
sS'c:\\marmalade\\6.0\\s3e\\makefile_builder\\templates\\vc8_user.pyc'
p159
F1334978828.0
sS'c:\\marmalade\\6.0\\s3e\\makefile_builder\\docs\\deprecated.options.txt'
p160
F1334967126.0
sS'c:\\marmalade\\6.0\\s3e\\makefile_builder\\plugins\\MakeEmitter.pyc'
p161
F1334978828.0
sS'c:\\marmalade\\6.0\\s3e\\makefile_builder\\templates\\win32_dsp.pyc'
p162
F1334978828.0
sS'c:\\marmalade\\6.0\\s3e\\makefile_builder\\plugins\\S3EEmitter.pyc'
p163
F1334978828.0
sS'c:\\marmalade\\6.0\\s3e\\makefile_builder\\docs\\deprecated.defines.txt'
p164
F1334967126.0
sS'c:\\marmalade\\6.0\\s3e\\makefile_builder\\templates'
p165
F1337360100.4429574
sS'c:\\marmalade\\6.0\\s3e\\makefile_builder\\plugins\\s3e_web.pyc'
p166
F1334978828.0
sS'c:\\marmalade\\6.0\\s3e\\makefile_builder\\plugins\\XcodeEmitter.pyc'
p167
F1337360186.0097733
sS'c:\\marmalade\\6.0\\s3e\\makefile_builder\\mkb.py'
p168
F1334967126.0
sS'c:\\marmalade\\6.0\\s3e\\makefile_builder\\plugins\\SConsEmitter.pyc'
p169
F1334978828.0
sS'c:\\marmalade\\6.0\\s3e\\makefile_builder\\plugins\\null.pyc'
p170
F1334978828.0
sS'c:\\marmalade\\6.0\\s3e\\makefile_builder\\templates\\rvct_linker_script'
p171
F1334967126.0
sS'c:\\marmalade\\6.0\\s3e\\makefile_builder\\plugins\\s3e_qmake.py'
p172
F1334967126.0
sS'c:\\marmalade\\6.0\\s3e\\makefile_builder\\templates\\xcode_pbxuser.py'
p173
F1334967126.0
sS'c:\\marmalade\\6.0\\s3e\\makefile_builder\\templates\\template.suo'
p174
F1334967126.0
sS'c:\\marmalade\\6.0\\s3e\\makefile_builder\\plugins\\iphone.pyc'
p175
F1334978828.0
sS'c:\\marmalade\\6.0\\s3e\\makefile_builder\\plugins\\s3e_vc6.pyc'
p176
F1334978828.0
sS'c:\\marmalade\\6.0\\s3e\\makefile_builder\\plugins\\s3e_make.pyc'
p177
F1334978828.0
sS'c:\\marmalade\\6.0\\s3e\\makefile_builder\\templates\\win32_dsw.pyc'
p178
F1334978828.0
sS'c:\\marmalade\\6.0\\s3e\\makefile_builder\\templates\\xcode4.xcscheme'
p179
F1334967126.0
sS'c:\\marmalade\\6.0\\s3e\\makefile_builder\\templates\\vc10_user.pyc'
p180
F1334978828.0
sS'c:\\marmalade\\6.0\\s3e\\makefile_builder\\plugins\\s3e_qmake.pyc'
p181
F1337360186.0477755
sS'c:\\marmalade\\6.0\\s3e\\makefile_builder\\plugins'
p182
F1337360186.0657766
sS'c:\\marmalade\\6.0\\s3e\\makefile_builder\\mkb_main.pyc'
p183
F1334978828.0
sS'c:\\marmalade\\6.0\\s3e\\makefile_builder\\docs'
p184
F1337360100.4669588
sS'c:\\marmalade\\6.0\\s3e\\makefile_builder\\plugins\\VisualStudioEmitter.pyc'
p185
F1334978828.0
sS'c:\\marmalade\\6.0\\s3e\\makefile_builder\\templates\\mips_linker_script'
p186
F1334967126.0
sS'c:\\marmalade\\6.0\\s3e\\makefile_builder\\templates\\qmake.py'
p187
F1334967126.0
sS'c:\\marmalade\\6.0\\s3e\\makefile_builder\\plugins\\vc6_utils.pyc'
p188
F1334978828.0
sS'c:\\marmalade\\6.0\\s3e\\makefile_builder\\plugins\\XcodeEmitter.py'
p189
F1334967126.0
sS'c:\\marmalade\\6.0\\s3e\\makefile_builder\\templates\\linker_script'
p190
F1334967126.0
sS'c:\\marmalade\\6.0\\s3e\\makefile_builder\\templates\\Info.plist'
p191
F1334967126.0
sS'c:\\marmalade\\6.0\\s3e\\makefile_builder\\templates\\gdb_start.txt'
p192
F1334967126.0
sS'c:\\marmalade\\6.0\\s3e\\makefile_builder\\plugins\\xcode4_schememanagement.py'
p193
F1334967126.0
sS'c:\\marmalade\\6.0\\s3e\\makefile_builder\\mkb_launcher.exe'
p194
F1334968326.0
sS'c:\\marmalade\\6.0\\s3e\\makefile_builder\\templates\\scons.pyc'
p195
F1334978828.0
sS'c:\\marmalade\\6.0\\s3e\\makefile_builder\\docs\\options.txt'
p196
F1334967126.0
sS'c:\\marmalade\\6.0\\s3e\\makefile_builder\\templates\\win32_vcxproj_filters.pyc'
p197
F1334978828.0
sS'c:\\marmalade\\6.0\\s3e\\makefile_builder\\docs\\parse_options.pyc'
p198
F1334978828.0
sS'c:\\marmalade\\6.0\\s3e\\makefile_builder\\extensions'
p199
F1337360100.4479578
sS'c:\\marmalade\\6.0\\s3e\\makefile_builder\\templates\\make.py'
p200
F1334967126.0
sS'c:\\marmalade\\6.0\\s3e\\makefile_builder\\plugins\\win32_vc6.pyc'
p201
F1334978828.0
sS'c:\\marmalade\\6.0\\s3e\\makefile_builder\\plugins\\s3e_xcode.py'
p202
F1334967126.0
sS'c:\\marmalade\\6.0\\s3e\\makefile_builder\\plugins\\s3e_scons.pyc'
p203
F1334978828.0
sS'c:\\marmalade\\6.0\\s3e\\makefile_builder\\docs\\deployment_options.txt'
p204
F1334967126.0
sS'c:\\marmalade\\6.0\\s3e\\makefile_builder\\plugins\\vc7_utils.pyc'
p205
F1334978828.0
sS'c:\\marmalade\\6.0\\s3e\\makefile_builder\\plugins\\deploy.pyc'
p206
F1334978828.0
sS'c:\\marmalade\\6.0\\s3e\\makefile_builder\\templates\\qmake_user.py'
p207
F1334967126.0
sS'c:\\marmalade\\6.0\\s3e\\makefile_builder\\templates\\vc6_opt.pyc'
p208
F1334978828.0
sS'c:\\marmalade\\6.0\\s3e\\makefile_builder\\plugins\\linux_scons.pyc'
p209
F1334978828.0
sS'c:\\marmalade\\6.0\\s3e\\makefile_builder\\mkb_parser.pyc'
p210
F1334978828.0
sS'c:\\marmalade\\6.0\\s3e\\makefile_builder\\plugins\\java.pyc'
p211
F1334978828.0
sS'c:\\marmalade\\6.0\\s3e\\makefile_builder\\plugins\\s3e_xcode.pyc'
p212
F1337360186.0667765
sS'c:\\marmalade\\6.0\\s3e\\makefile_builder\\plugins\\Emitter.pyc'
p213
F1334978828.0
sS'c:\\marmalade\\6.0\\s3e\\makefile_builder\\templates\\win32_vcxproj.pyc'
p214
F1334978828.0
sS'c:\\marmalade\\6.0\\s3e\\makefile_builder\\templates\\xcode4_DeployTool.xcscheme'
p215
F1334967126.0
sS'c:\\marmalade\\6.0\\s3e\\makefile_builder\\plugins\\xcode4_schememanagement.pyc'
p216
F1337360186.0137737
sS'c:\\marmalade\\6.0\\s3e\\makefile_builder\\docs\\mkb.defines.txt'
p217
F1334967126.0
sS'c:\\marmalade\\6.0\\s3e\\makefile_builder\\templates\\win32_sln.pyc'
p218
F1334978828.0
sS'c:\\marmalade\\6.0\\s3e\\makefile_builder\\tool_launcher.exe'
p219
F1334968328.0
sS'c:\\marmalade\\6.0\\s3e\\makefile_builder\\templates\\xcode.py'
p220
F1334967126.0
sS'c:\\marmalade\\6.0\\s3e\\makefile_builder\\extensions\\make_dist.py'
p221
F1334967126.0
sS'c:\\marmalade\\6.0\\s3e\\makefile_builder\\templates\\win32_vcproj.pyc'
p222
F1334978828.0
sS'c:\\marmalade\\6.0\\s3e\\makefile_builder\\templates\\template.opt'
p223
F1334967126.0
sS'c:\\marmalade\\6.0\\s3e\\makefile_builder\\templates\\MainWindow.xib'
p224
F1334967126.0
sccopy_reg
_reconstructor
p225
(cmkb_main
MkbFile
p226
c__builtin__
object
p227
Ntp228
Rp229
(dp230
g5
(lp231
sS'target_name'
p232
S'GardenWars'
p233
sS'current_file'
p234
g99
sS'package_path'
p235
(lp236
VC:\u005cUsers\u005cFlash\u005cAppData\u005cRoaming\u005cMarmalade\u005cpackages\u005c6.0.1\u005clibjpeg_6b
p237
aVC:\u005cUsers\u005cFlash\u005cAppData\u005cRoaming\u005cMarmalade\u005cpackages\u005c6.0.1\u005clibpng_1.2.34
p238
aVC:\u005cUsers\u005cFlash\u005cAppData\u005cRoaming\u005cMarmalade\u005cpackages\u005c6.0.1\u005czlib_1.2.4
p239
asS'post_build'
p240
(lp241
(lp242
S'c:/marmalade/6.0/s3e/tools'
p243
aS'C:\\Marmalade\\6.0\\s3e\\python\\python.exe .\\process_map.py "$(TargetPath)"'
p244
aasS'librarys'
p245
(lp246
g225
(cmkb_main
Library
p247
g227
Ntp248
Rp249
(dp250
S'name'
p251
S'vc6_compat.lib'
p252
sS'expand_name'
p253
I00
sS'include_spec_rvct_objs'
p254
(lp255
sS'include_all_objs'
p256
I00
sS'share_arm'
p257
I00
sS'arch'
p258
S'x86'
p259
sS'nodebug'
p260
I00
sg32
Nsbag225
(g247
g227
Ntp261
Rp262
(dp263
g251
S'jpeg'
p264
sg253
I01
sg254
(lp265
sg256
I00
sg257
Nsg258
Nsg260
I00
sg32
Nsbag225
(g247
g227
Ntp266
Rp267
(dp268
g251
S'z'
p269
sg253
I01
sg254
g265
sg256
I00
sg257
Nsg258
Nsg260
I00
sg32
Nsbag225
(g247
g227
Ntp270
Rp271
(dp272
g251
S'png'
p273
sg253
I01
sg254
g265
sg256
I00
sg257
Nsg258
Nsg260
I00
sg32
Nsbag225
(g247
g227
Ntp274
Rp275
(dp276
g251
S'iwutil'
p277
sg253
I01
sg254
g265
sg256
I00
sg257
I01
sg258
Nsg260
I00
sg32
Nsbag225
(g247
g227
Ntp278
Rp279
(dp280
g251
S'iwgeom'
p281
sg253
I01
sg254
g265
sg256
I00
sg257
I01
sg258
Nsg260
I00
sg32
Nsbag225
(g247
g227
Ntp282
Rp283
(dp284
g251
S'iwresmanager'
p285
sg253
I01
sg254
g265
sg256
I00
sg257
I01
sg258
Nsg260
I00
sg32
Nsbag225
(g247
g227
Ntp286
Rp287
(dp288
g251
S'ATI_Compress_MT_VC7.lib'
p289
sg253
I00
sg254
g265
sg256
I00
sg257
Nsg258
S'x86'
p290
sg260
I00
sg32
Nsbag225
(g247
g227
Ntp291
Rp292
(dp293
g251
S'iwgx'
p294
sg253
I01
sg254
g265
sg256
I00
sg257
I01
sg258
Nsg260
I00
sg32
Nsbag225
(g247
g227
Ntp295
Rp296
(dp297
g251
S'iwgl'
p298
sg253
I01
sg254
g265
sg256
I00
sg257
Nsg258
Nsg260
I00
sg32
Nsbag225
(g247
g227
Ntp299
Rp300
(dp301
g251
S'iwgxfont'
p302
sg253
I01
sg254
g265
sg256
I00
sg257
I01
sg258
Nsg260
I00
sg32
Nsbag225
(g247
g227
Ntp303
Rp304
(dp305
g251
S'iw2d'
p306
sg253
I01
sg254
g265
sg256
I00
sg257
I01
sg258
Nsg260
I00
sg32
Nsbag225
(g247
g227
Ntp307
Rp308
(dp309
g251
S's3e_cpp'
p310
sg253
I01
sg254
g255
sg256
I00
sg257
I00
sg258
Nsg260
I00
sg32
Nsbag225
(g247
g227
Ntp311
Rp312
(dp313
g251
S's3e'
p314
sg253
I01
sg254
(lp315
S'iwcrt.o'
p316
asg256
I00
sg257
I00
sg258
Nsg260
I00
sg32
Nsbag225
(g247
g227
Ntp317
Rp318
(dp319
g251
S'c:/marmalade/6.0/s3e/lib/x86/s3e_api.lib'
p320
sg253
I00
sg254
g255
sg256
I00
sg257
I00
sg258
S'x86'
p321
sg260
I00
sg32
Nsbag225
(g247
g227
Ntp322
Rp323
(dp324
g251
S's3estubs'
p325
sg253
I00
sg254
g255
sg256
I00
sg257
I00
sg258
S'arm'
p326
sg260
I00
sg32
S'gcc'
p327
sbasS'library_paths'
p328
(lp329
g225
(cmkb_main
LibraryPath
p330
g227
Ntp331
Rp332
(dp333
S'expand_path'
p334
I01
sS'add_cpu_variant'
p335
I00
sg251
Vc:/users/flash/appdata/roaming/marmalade/packages/6.0.1/libjpeg_6b
p336
sbag225
(g330
g227
Ntp337
Rp338
(dp339
g334
I01
sg335
I00
sg251
Vc:/users/flash/appdata/roaming/marmalade/packages/6.0.1/zlib_1.2.4
p340
sbag225
(g330
g227
Ntp341
Rp342
(dp343
g334
I01
sg335
I00
sg251
Vc:/users/flash/appdata/roaming/marmalade/packages/6.0.1/libpng_1.2.34
p344
sbag225
(g330
g227
Ntp345
Rp346
(dp347
g334
I01
sg335
I00
sg251
S'c:/marmalade/6.0/modules/iwutil'
p348
sbag225
(g330
g227
Ntp349
Rp350
(dp351
g334
I01
sg335
I00
sg251
S'c:/marmalade/6.0/modules/iwgeom'
p352
sbag225
(g330
g227
Ntp353
Rp354
(dp355
g334
I01
sg335
I00
sg251
S'c:/marmalade/6.0/modules/iwresmanager'
p356
sbag225
(g330
g227
Ntp357
Rp358
(dp359
g334
I00
sg335
I00
sg251
S'c:/marmalade/6.0/modules/iwgx/atitools'
p360
sbag225
(g330
g227
Ntp361
Rp362
(dp363
g334
I01
sg335
I00
sg251
S'c:/marmalade/6.0/modules/iwgx'
p364
sbag225
(g330
g227
Ntp365
Rp366
(dp367
g334
I01
sg335
I00
sg251
S'c:/marmalade/6.0/modules/iwgl'
p368
sbag225
(g330
g227
Ntp369
Rp370
(dp371
g334
I01
sg335
I00
sg251
S'c:/marmalade/6.0/modules/iwgxfont'
p372
sbag225
(g330
g227
Ntp373
Rp374
(dp375
g334
I01
sg335
I00
sg251
S'c:/marmalade/6.0/modules/iw2d'
p376
sbag225
(g330
g227
Ntp377
Rp378
(dp379
g334
I01
sg335
I00
sg251
S'c:/marmalade/6.0/s3e'
p380
sbasS'macros'
p381
(dp382
S'IW_USE_CALLSTACK'
p383
NsS'IW_SDK'
p384
NsS'I3D_PLATFORM_S3E'
p385
NsS'IW_MKF_LIBJPEG'
p386
NsS'I3D_OS_S3E'
p387
NsS'IW_APP_VERSION'
p388
S'"1.0"'
p389
sS'IW_MKF_IWRESMANAGER'
p390
NsS'IW_MKF_IWUTIL'
p391
NsS'IW_MKF_IWGEOM'
p392
NsS'IW_ASSERTION_CHANNEL_2D'
p393
S'1'
p394
sS'IW_APP_NAME'
p395
S'"GardenWars"'
p396
sS'IW_MKF_IWGXFONT'
p397
NsS'IW_PLATFORM_S3E'
p398
NsS'IW_MKF_ZLIB'
p399
NsS'IW_MKF_IWGX'
p400
NsS'IW_USE_ASSERTIONS'
p401
NsS'_CRT_SECURE_NO_DEPRECATE'
p402
NsS'IW_MKF_IWGL'
p403
NsS'IW_MKF_LIBPNG'
p404
NsS'IW_DEBUG'
p405
NsS'IW_USE_TRACING'
p406
NsS'S3E_INCLUDE_LEGACY'
p407
NsS'__S3E__'
p408
NsS'IW_MKF_IW2D'
p409
NssS'done_warnings'
p410
(dp411
sS'subprojects'
p412
(dp413
Vc:\u005cusers\u005cflash\u005cappdata\u005croaming\u005cmarmalade\u005cpackages\u005c6.0.1\u005clibjpeg_6b\u005clibjpeg.mkf
p414
S'libjpeg'
p415
sg140
S'iwgx'
p416
sVc:\u005cusers\u005cflash\u005cappdata\u005croaming\u005cmarmalade\u005cpackages\u005c6.0.1\u005clibpng_1.2.34\u005clibpng.mkf
p417
S'libpng'
p418
sg146
S'iwresmanager'
p419
sVc:\u005cusers\u005cflash\u005cappdata\u005croaming\u005cmarmalade\u005cpackages\u005c6.0.1\u005czlib_1.2.4\u005czlib.mkf
p420
S'zlib'
p421
sg142
S'iwutil'
p422
sg147
S'iwgl'
p423
sg139
S'iw2d'
p424
sg148
S'iwgxfont'
p425
sg141
S'iwgeom'
p426
ssS'deployments'
p427
(dp428
S'Default'
p429
g225
(cmkb_main
Deployment
p430
g227
Ntp431
Rp432
(dp433
S'got_version'
p434
I0
sS'assets'
p435
g429
sS'mkb'
p436
g229
sS'target'
p437
Nsg258
(lp438
sS'options'
p439
(dp440
S'iphone-link-lib'
p441
(lp442
sS'game-icf'
p443
NsS'iphone-icon-high-res'
p444
NsS'win32-pref-windowposy'
p445
NsS'win32-pref-windowposx'
p446
NsS'bada-appsecret'
p447
NsS'playbook-author'
p448
NsS'winmobile-icon32'
p449
NsS'linux-ext-lib'
p450
(lp451
sS'target-folder'
p452
NsS'ngi-splashscreen-port'
p453
NsS'psp-discversion'
p454
NsS'lgtv-use-drm'
p455
NsS'nds-bannertitle-sp'
p456
NsS'symbian-platsecflags'
p457
NsS'psp-producer'
p458
NsS'iphone-provisioning-profile'
p459
NsS'copyright'
p460
NsS'winmobile-png45'
p461
NsS'iphone-link-libdir'
p462
(lp463
sS'symbian-cert'
p464
NsS'nds-bannertitle-hn'
p465
NsS'brew-depends'
p466
NsS'winmobile-png60'
p467
NsS'winmobile-nouninstall'
p468
NsS'brew-mif'
p469
NsS'android-icon-hdpi'
p470
NsS'iphone-ipad-only'
p471
NsS'iphone-bundle-url-name'
p472
NsS'android-aliasname'
p473
NsS'psp-dlgmanual'
p474
NsS'iphone-backgroundmode-audio'
p475
NsS'android-pkgname'
p476
NsS'webos-memory'
p477
NsS'brew-uid'
p478
NsS'android-keypass'
p479
NsS'ngi-uid'
p480
NsS'symbian-locationsupport'
p481
NsS'iphone-signing-host'
p482
NsS'ngi-install-sisx-only'
p483
NsS'nds-bannertitle-jp'
p484
NsS'name'
p485
NsS'symbian-icon1-format'
p486
NsS'uiq3-uid'
p487
NsS'psp-dlgcontentid'
p488
NsS'auto-derbh'
p489
NsS'arch'
p490
NsS'bada-use-partner-privileges'
p491
NsS'nds-bannertitle-it'
p492
NsS'playbook-authorid'
p493
NsS'psp-copyright'
p494
NsS'ngi-achievements'
p495
NsS'splashscreen'
p496
NsS'symbian-soundrecordsupport'
p497
NsS'symbian-icon2-format'
p498
NsS'long-caption'
p499
NsS'iphone-icon-settings-high-res'
p500
NsS'android-manifest'
p501
NsS'ngi-splash-producer'
p502
NsS'winmobile-icon16'
p503
NsS's3e-compression'
p504
NsS'ngi-game-extras'
p505
NsS'iphone-link-opts'
p506
(lp507
sS'iphone-region'
p508
NsS'uiq3-icon3-mask'
p509
NsS'winmobile-start-menu-folder'
p510
NsS'brew-clsid'
p511
NsS'brew-encoding'
p512
NsS'symbian-icon1'
p513
NsS'symbian-icon2'
p514
NsS'ngi-icon1'
p515
NsS'nds-makercode'
p516
NsS'ngi-icon3'
p517
NsS'ngi-icon2'
p518
NsS'ngi-icon4'
p519
NsS'osx-ext-dll'
p520
(lp521
sS'version'
p522
NsS'bada-manifest'
p523
NsS'provider'
p524
NsS'iphone-prerendered-icon'
p525
NsS'iphone-appid'
p526
NsS'playbook-keystore'
p527
NsS'nds-initialcode'
p528
NsS'ngi-splashscreen-land'
p529
NsS'ngi-key'
p530
NsS'winmobile-icon64'
p531
NsS'iphone-persistent-wifi'
p532
NsS'symbian7-uid'
p533
NsS'winmobile-setup-dll'
p534
NsS'symbian-osexecsupport'
p535
NsS'android-install-location'
p536
NsS'olddeploytoolstyle'
p537
NsS'nds-privatesavedatasize'
p538
NsS'symbian9-uid'
p539
NsS'nds-bannertitle-cn'
p540
NsS'winmobile-trace-file'
p541
NsS'playbook-storepass'
p542
NsS'ngi-no-assets'
p543
NsS'android-icon-ldpi'
p544
NsS'psp-appversion'
p545
NsS'networking'
p546
NsS'winmobile-install-folder'
p547
NsS'ngi-metadata'
p548
NsS'android-external-res'
p549
(lp550
sS'manufacturer'
p551
NsS'android-icon-gallery'
p552
NsS'bada-signed'
p553
NsS'nds-publicsavedatasize'
p554
NsS'iphone-apple-wwdr-cert'
p555
NsS'psp-snd0'
p556
NsS'iphone-extra-sections'
p557
NsS'iphone-nosign'
p558
NsS'caption'
p559
NsS'android-icon'
p560
NsS'android-external-jars'
p561
(lp562
sS'android-storepass'
p563
NsS'iphone-info-plist'
p564
NsS'ngi-arena-config'
p565
NsS'android-extra-manifest'
p566
(lp567
sS'iphone-icon-ipad-search'
p568
NsS'android-custom-activity'
p569
NsS'version-minor'
p570
NsS'iphone-icon-ipad'
p571
NsS'bada-appid'
p572
NsS'meego-desc'
p573
NsS'iphone-distribution-key'
p574
NsS'iphone-link-libdirs'
p575
(lp576
sS'iphone-icon-large'
p577
NsS'symbian-maxheapsize'
p578
NsS'embed-icf'
p579
NsS'psp-titlename'
p580
NsS'win-icon'
p581
NsS'symbian-icon1-mask'
p582
NsS'psp-parentallevel'
p583
NsS'priv-sign-key'
p584
NsS'webos-appinfo'
p585
NsS'symbian-cert-key'
p586
NsS'winmobile-ampd-part-number'
p587
NsS'webos-appid'
p588
NsS'android-icon-nonstandard'
p589
NsS'android-extra-application-manifest'
p590
(lp591
sS'iphone-icon-settings'
p592
NsS'ngi-gameinfo'
p593
NsS'iphone-distribution-cert'
p594
NsS'osx-icon'
p595
NsS'symbian-disable-ecompxl'
p596
NsS'splashscreen-auto-onblack'
p597
NsS'icon'
p598
NsS'nds-romheadertemplate'
p599
NsS'webos-icon'
p600
NsS'ngi-arena-rss'
p601
NsS'nds-bannertitle-en'
p602
NsS'win32-ext-dll'
p603
(lp604
sS'psp-dlgicon0'
p605
NsS'iphone-development-key'
p606
NsS'psp-discid'
p607
NsS'winmobile-icon48'
p608
NsS'uiq3-icon1-mask'
p609
NsS'nds-titlename'
p610
NsS'android-so'
p611
(lp612
sS'android-supports-gl-texture'
p613
(lp614
sS'bada-splash'
p615
NsS'version-revision'
p616
NsS'android-icon-mdpi'
p617
NsS'android-keystore'
p618
NsS'uiq3-icon2-format'
p619
NsS'version-string'
p620
NsS'winmobile-png90'
p621
NsS'iphone-disable-ipad'
p622
NsS'uiq3-icon1-format'
p623
NsS'iphone-bundle-url-schemes'
p624
NsS'nds-icon'
p625
NsS'ngi-arena-locales'
p626
NsS'iphone-development-cert'
p627
NsS'ngi-filemanager-lib'
p628
NsS'meego-provider-contact'
p629
NsS'android_extra_strings'
p630
NsS'playbook-icon'
p631
NsS'uid'
p632
NsS'iphone-signing-identity'
p633
NsS'brew-icon-medium'
p634
NsS'brew-icon-large'
p635
NsS'pkguid-as-uid'
p636
NsS'symbian-icon1-mask-black'
p637
NsS'uiq3-icon2'
p638
NsS'pub-sign-key'
p639
NsS'nds-bannertitle-fr'
p640
NsS'win32-pref-windowtitle'
p641
NsS'symbian8-uid'
p642
NsS'symbian-icon-svg'
p643
NsS'android-unsigned'
p644
NsS'brew-priviledges'
p645
NsS'ngi-cert'
p646
NsS'brew-icon-small'
p647
NsS'psp-dlgpic2'
p648
NsS'bada-icon'
p649
NsS'psp-dlgpic0'
p650
NsS'ngi-gcce-loader'
p651
NsS'psp-pic0'
p652
NsS'psp-pic1'
p653
NsS'iphone-icon'
p654
NsS'psp-icon0'
p655
NsS'psp-icon1'
p656
NsS'uiq3-icon3-format'
p657
NsS'version-major'
p658
NsS'iphone_bundle_localisations'
p659
NsS'winmobile-icon'
p660
NsS'symbian-keypwd'
p661
NsS'iphone-no-splash'
p662
NsS'playbook-access-shared'
p663
NsS'psp-dlghealthwarning'
p664
NsS'iphone-link-libs'
p665
(lp666
sS'ngi-filemanager-dll'
p667
NsS'iphone-splash'
p668
NsS'nds-bannertitle-ge'
p669
NsS'android_icon_gallery'
p670
NsS'iphone-app-fonts'
p671
NsS'symbian-icon2-mask'
p672
NsS'iphone-sign-for-distribution'
p673
NsS'psp-dlgprotectdocument'
p674
NsS'winmobile-cab-compress'
p675
NsS'uiq3-icon3'
p676
NsS'uiq3-icon1'
p677
NsS'itunes-artwork'
p678
NsS'win32-icon'
p679
NsS'assets'
p680
NsS'symbian-key'
p681
NsS'app-icf'
p682
NsS'ngi-arena-rsc'
p683
NsS'brew-compress-loader'
p684
NsS'uiq3-icon2-mask'
p685
NsS'symbian-icon2-mask-black'
p686
NsS'android-extra-strings'
p687
NsS'symbian-run-on-install'
p688
NsS'iphone-bundle-localisations'
p689
Nssg251
g429
sbssS'platform'
p690
S'S3E'
p691
sg51
S'1.0'
p692
sS'arcade_platform'
p693
g4
sS'extensions'
p694
(dp695
sS'source_groups_tree'
p696
(dp697
S"'Marmalade Studio'"
p698
(dp699
S'iwgl'
p700
(dp701
S'c:/marmalade/6.0/modules/iwgl/iwgl.mkf'
p702
(lp703
I1
a(dp704
asS'c:/marmalade/6.0/modules/iwgl/h/IwGL.h'
p705
(lp706
I1
a(dp707
asS'c:/marmalade/6.0/modules/iwgl/docs/iwgl.config.txt'
p708
(lp709
I1
ag707
asS'c:/marmalade/6.0/modules/iwgl/h/IwGLExt.h'
p710
(lp711
I1
ag707
assS'iw2d'
p712
(dp713
S'c:/marmalade/6.0/modules/iw2d/iw2d.mkf'
p714
(lp715
I1
a(dp716
asS'c:/marmalade/6.0/modules/iw2d/docs/iw2d.config.txt'
p717
(lp718
I1
a(dp719
asS'c:/marmalade/6.0/modules/iw2d/h/Iw2D.h'
p720
(lp721
I1
ag719
asS'c:/marmalade/6.0/modules/iw2d/docs/iw2d_public.defines.txt'
p722
(lp723
I1
ag719
assS'iwgxfont'
p724
(dp725
S'c:/marmalade/6.0/modules/iwgxfont/h/IwGxFontPreparedData.h'
p726
(lp727
I1
a(dp728
asS'c:/marmalade/6.0/modules/iwgxfont/h/IwGxFont.h'
p729
(lp730
I1
ag728
asS'c:/marmalade/6.0/modules/iwgxfont/iwgxfont.mkf'
p731
(lp732
I1
a(dp733
asS'c:/marmalade/6.0/modules/iwgxfont/docs/iwgxfont.config.txt'
p734
(lp735
I1
ag728
asS'c:/marmalade/6.0/modules/iwgxfont/h/IwGxFontState.h'
p736
(lp737
I1
ag728
asS'c:/marmalade/6.0/modules/iwgxfont/h/IwGxFontContainer.h'
p738
(lp739
I1
ag728
asS'c:/marmalade/6.0/modules/iwgxfont/docs/iwgxfont_public.defines.txt'
p740
(lp741
I1
ag728
asS'c:/marmalade/6.0/modules/iwgxfont/h/IwGxFontGlyph.h'
p742
(lp743
I1
ag728
asS'c:/marmalade/6.0/modules/iwgxfont/h/IwGxFontTypes.h'
p744
(lp745
I1
ag728
assS'iwgeom'
p746
(dp747
S'c:/marmalade/6.0/modules/iwgeom/h/IwGeomFMat.h'
p748
(lp749
I1
a(dp750
asS'c:/marmalade/6.0/modules/iwgeom/iwgeom.mkf'
p751
(lp752
I1
a(dp753
asS'c:/marmalade/6.0/modules/iwgeom/h/IwGeom.h'
p754
(lp755
I1
ag750
asS'c:/marmalade/6.0/modules/iwgeom/h/IwGeomFVec2.h'
p756
(lp757
I1
ag750
asS'c:/marmalade/6.0/modules/iwgeom/h/IwGeomFVec4.h'
p758
(lp759
I1
ag750
asS'c:/marmalade/6.0/modules/iwgeom/h/IwGeomIntersect.h'
p760
(lp761
I1
ag750
asS'c:/marmalade/6.0/modules/iwgeom/h/IwGeomLegacy.h'
p762
(lp763
I1
ag750
asS'c:/marmalade/6.0/modules/iwgeom/h/IwGeomSQuat.h'
p764
(lp765
I1
ag750
asS'c:/marmalade/6.0/modules/iwgeom/h/IwGeomFBBox.h'
p766
(lp767
I1
ag750
asS'c:/marmalade/6.0/modules/iwgeom/h/IwGeomVec2.h'
p768
(lp769
I1
ag750
asS'c:/marmalade/6.0/modules/iwgeom/h/IwGeomMat.h'
p770
(lp771
I1
ag750
asS'c:/marmalade/6.0/modules/iwgeom/h/IwGeomVec3.h'
p772
(lp773
I1
ag750
asS'c:/marmalade/6.0/modules/iwgeom/h/IwGeomQuat.h'
p774
(lp775
I1
ag750
asS'c:/marmalade/6.0/modules/iwgeom/h/IwGeomSVec4.h'
p776
(lp777
I1
ag750
asS'c:/marmalade/6.0/modules/iwgeom/h/IwGeomCore.h'
p778
(lp779
I1
ag750
asS'c:/marmalade/6.0/modules/iwgeom/h/IwGeomSVec2.h'
p780
(lp781
I1
ag750
asS'c:/marmalade/6.0/modules/iwgeom/h/IwGeomMat2D.h'
p782
(lp783
I1
ag750
asS'c:/marmalade/6.0/modules/iwgeom/h/IwGeomVec4.h'
p784
(lp785
I1
ag750
asS'c:/marmalade/6.0/modules/iwgeom/h/IwGeomSVec3.h'
p786
(lp787
I1
ag750
asS'c:/marmalade/6.0/modules/iwgeom/h/IwGeomFQuat.h'
p788
(lp789
I1
ag750
asS'c:/marmalade/6.0/modules/iwgeom/h/IwGeomPlane.h'
p790
(lp791
I1
ag750
asS'c:/marmalade/6.0/modules/iwgeom/h/IwGeomBBox.h'
p792
(lp793
I1
ag750
asS'c:/marmalade/6.0/modules/iwgeom/h/IwGeomSqrt.h'
p794
(lp795
I1
ag750
asS'c:/marmalade/6.0/modules/iwgeom/h/IwGeomFVec3.h'
p796
(lp797
I1
ag750
asS'c:/marmalade/6.0/modules/iwgeom/h/IwGeomFSphere.h'
p798
(lp799
I1
ag750
asS'c:/marmalade/6.0/modules/iwgeom/docs/iwgeom.config.txt'
p800
(lp801
I1
ag750
asS'c:/marmalade/6.0/modules/iwgeom/h/IwGeomFMat2D.h'
p802
(lp803
I1
ag750
asS'c:/marmalade/6.0/modules/iwgeom/h/IwGeomSphere.h'
p804
(lp805
I1
ag750
asS'c:/marmalade/6.0/modules/iwgeom/h/IwGeomMenu.h'
p806
(lp807
I1
ag750
asS'c:/marmalade/6.0/modules/iwgeom/h/IwGeomVec.h'
p808
(lp809
I1
ag750
assS'iwresmanager'
p810
(dp811
S'c:/marmalade/6.0/modules/iwresmanager/h/IwResHandlerGROUP.h'
p812
(lp813
I1
a(dp814
asS'c:/marmalade/6.0/modules/iwresmanager/h/IwResManager.h'
p815
(lp816
I1
ag814
asS'c:/marmalade/6.0/modules/iwresmanager/docs/iwresmanager.config.txt'
p817
(lp818
I1
ag814
asS'c:/marmalade/6.0/modules/iwresmanager/h/IwResHandlerITX.h'
p819
(lp820
I1
ag814
asS'c:/marmalade/6.0/modules/iwresmanager/h/IwResManagerClass.h'
p821
(lp822
I1
ag814
asS'c:/marmalade/6.0/modules/iwresmanager/h/IwResHandlerImage.h'
p823
(lp824
I1
ag814
asS'c:/marmalade/6.0/modules/iwresmanager/iwresmanager.mkf'
p825
(lp826
I1
a(dp827
asS'c:/marmalade/6.0/modules/iwresmanager/h/IwResSerialise.h'
p828
(lp829
I1
ag814
asS'c:/marmalade/6.0/modules/iwresmanager/h/IwResGroup.h'
p830
(lp831
I1
ag814
asS'c:/marmalade/6.0/modules/iwresmanager/h/IwResHandler.h'
p832
(lp833
I1
ag814
assS'iwgx'
p834
(dp835
S'c:/marmalade/6.0/modules/iwgx/h/IwGxPrint.h'
p836
(lp837
I1
a(dp838
asS'c:/marmalade/6.0/modules/iwgx/h/IwClip.inl'
p839
(lp840
I1
ag838
asS'c:/marmalade/6.0/modules/iwgx/h/IwTPage.h'
p841
(lp842
I1
ag838
asS'c:/marmalade/6.0/modules/iwgx/h/IwGxSurface.h'
p843
(lp844
I1
ag838
asS'c:/marmalade/6.0/modules/iwgx/h/IwGxFuncTable.h'
p845
(lp846
I1
ag838
asS'c:/marmalade/6.0/modules/iwgx/h/IwGxMotionBlur.h'
p847
(lp848
I1
ag838
asS'c:/marmalade/6.0/modules/iwgx/h/IwGxTransformSW.h'
p849
(lp850
I1
ag838
asS'c:/marmalade/6.0/modules/iwgx/h/IwGxError.h'
p851
(lp852
I1
ag838
asS'c:/marmalade/6.0/modules/iwgx/h/IwColour.h'
p853
(lp854
I1
ag838
asS'c:/marmalade/6.0/modules/iwgx/h/IwGxDrawSW.h'
p855
(lp856
I1
ag838
asS'c:/marmalade/6.0/modules/iwgx/h/IwDebugPrim.h'
p857
(lp858
I1
ag838
asS'c:/marmalade/6.0/modules/iwgx/h/IwMaterial.h'
p859
(lp860
I1
ag838
asS'c:/marmalade/6.0/modules/iwgx/docs/iwgx.config.txt'
p861
(lp862
I1
ag838
asS'c:/marmalade/6.0/modules/iwgx/h/IwMatAnim.h'
p863
(lp864
I1
ag838
asS'c:/marmalade/6.0/modules/iwgx/h/IwGxMetrics.h'
p865
(lp866
I1
ag838
asS'c:/marmalade/6.0/modules/iwgx/iwgx.mkf'
p867
(lp868
I1
a(dp869
asS'c:/marmalade/6.0/modules/iwgx/h/IwClip.h'
p870
(lp871
I1
ag838
asS'c:/marmalade/6.0/modules/iwgx/h/IwTexture.h'
p872
(lp873
I1
ag838
asS'c:/marmalade/6.0/modules/iwgx/docs/iwgx_public.defines.txt'
p874
(lp875
I1
ag838
asS'c:/marmalade/6.0/modules/iwgx/h/IwGxTypes.h'
p876
(lp877
I1
ag838
asS'c:/marmalade/6.0/modules/iwgx/h/IwGxState.h'
p878
(lp879
I1
ag838
asS'c:/marmalade/6.0/modules/iwgx/h/IwGx.h'
p880
(lp881
I1
ag838
asS'c:/marmalade/6.0/modules/iwgx/h/IwGxDebug.h'
p882
(lp883
I1
ag838
asS'c:/marmalade/6.0/modules/iwgx/h/IwGxShaderTechnique.h'
p884
(lp885
I1
ag838
asS'c:/marmalade/6.0/modules/iwgx/h/IwGxRenderSW.h'
p886
(lp887
I1
ag838
asS'c:/marmalade/6.0/modules/iwgx/h/IwGxStream.h'
p888
(lp889
I1
ag838
asS'c:/marmalade/6.0/modules/iwgx/h/IwResHandlerMTL.h'
p890
(lp891
I1
ag838
assS'iwutil'
p892
(dp893
S'c:/marmalade/6.0/modules/iwutil/h/IwAllocator.h'
p894
(lp895
I1
a(dp896
asS'c:/marmalade/6.0/modules/iwutil/h/IwMath.h'
p897
(lp898
I1
ag896
asS'c:/marmalade/6.0/modules/iwutil/h/IwCopyingPtr.h'
p899
(lp900
I1
ag896
asS'c:/marmalade/6.0/modules/iwutil/h/IwUtilInitTerm.h'
p901
(lp902
I1
ag896
asS'c:/marmalade/6.0/modules/iwutil/h/IwEvent.h'
p903
(lp904
I1
ag896
asS'c:/marmalade/6.0/modules/iwutil/h/IwCore.h'
p905
(lp906
I1
ag896
asS'c:/marmalade/6.0/modules/iwutil/h/IwOptimiseThumb.h'
p907
(lp908
I1
ag896
asS'c:/marmalade/6.0/modules/iwutil/h/IwRuntime.h'
p909
(lp910
I1
ag896
asS'c:/marmalade/6.0/modules/iwutil/h/IwChar.h'
p911
(lp912
I1
ag896
asS'c:/marmalade/6.0/modules/iwutil/h/IwMemory.h'
p913
(lp914
I1
ag896
asS'c:/marmalade/6.0/modules/iwutil/h/IwProfileMenu.h'
p915
(lp916
I1
ag896
asS'c:/marmalade/6.0/modules/iwutil/h/IwOptimiseSpeed.h'
p917
(lp918
I1
ag896
asS'c:/marmalade/6.0/modules/iwutil/h/IwMemManagerDL.h'
p919
(lp920
I1
ag896
asS'c:/marmalade/6.0/modules/iwutil/h/IwHashString.h'
p921
(lp922
I1
ag896
asS'c:/marmalade/6.0/modules/iwutil/h/IwSerialise.h'
p923
(lp924
I1
ag896
asS'c:/marmalade/6.0/modules/iwutil/h/IwArray.h'
p925
(lp926
I1
ag896
asS'c:/marmalade/6.0/modules/iwutil/h/IwBuffer.h'
p927
(lp928
I1
ag896
asS'c:/marmalade/6.0/modules/iwutil/h/IwImage.h'
p929
(lp930
I1
ag896
asS'c:/marmalade/6.0/modules/iwutil/h/IwUtil.h'
p931
(lp932
I1
ag896
asS'c:/marmalade/6.0/modules/iwutil/h/IwString.h'
p933
(lp934
I1
ag896
asS'c:/marmalade/6.0/modules/iwutil/h/IwFile.h'
p935
(lp936
I1
ag896
asS'c:/marmalade/6.0/modules/iwutil/h/IwManagedList.h'
p937
(lp938
I1
ag896
asS'c:/marmalade/6.0/modules/iwutil/h/IwMenu.h'
p939
(lp940
I1
ag896
asS'c:/marmalade/6.0/modules/iwutil/h/IwDivTable.h'
p941
(lp942
I1
ag896
asS'c:/marmalade/6.0/modules/iwutil/h/IwTextParseable.h'
p943
(lp944
I1
ag896
asS'c:/marmalade/6.0/modules/iwutil/h/IwTextParserITX.h'
p945
(lp946
I1
ag896
asS'c:/marmalade/6.0/modules/iwutil/h/IwPath.h'
p947
(lp948
I1
ag896
asS'c:/marmalade/6.0/modules/iwutil/h/IwSingleton.h'
p949
(lp950
I1
ag896
asS'c:/marmalade/6.0/modules/iwutil/h/IwUncopyable.h'
p951
(lp952
I1
ag896
asS'c:/marmalade/6.0/modules/iwutil/h/IwKeymap.h'
p953
(lp954
I1
ag896
asS'c:/marmalade/6.0/modules/iwutil/h/IwManaged.h'
p955
(lp956
I1
ag896
asS'c:/marmalade/6.0/modules/iwutil/h/IwOptimiseARM.h'
p957
(lp958
I1
ag896
asS'c:/marmalade/6.0/modules/iwutil/h/IwOptimiseSize.h'
p959
(lp960
I1
ag896
asS'c:/marmalade/6.0/modules/iwutil/h/IwFibre.h'
p961
(lp962
I1
ag896
asS'c:/marmalade/6.0/modules/iwutil/h/IwTextParser.h'
p963
(lp964
I1
ag896
asS'c:/marmalade/6.0/modules/iwutil/h/IwUTF8.h'
p965
(lp966
I1
ag896
asS'c:/marmalade/6.0/modules/iwutil/h/IwClassFactory.h'
p967
(lp968
I1
ag896
asS'c:/marmalade/6.0/modules/iwutil/h/IwList.h'
p969
(lp970
I1
ag896
asS'c:/marmalade/6.0/modules/iwutil/iwutil.mkf'
p971
(lp972
I1
a(dp973
asS'c:/marmalade/6.0/modules/iwutil/h/IwResource.h'
p974
(lp975
I1
ag896
asS'c:/marmalade/6.0/modules/iwutil/h/IwMemBucket.h'
p976
(lp977
I1
ag896
asS'c:/marmalade/6.0/modules/iwutil/h/IwVariableBitField.h'
p978
(lp979
I1
ag896
asS'c:/marmalade/6.0/modules/iwutil/h/IwMemBucketHelpers.h'
p980
(lp981
I1
ag896
asS'c:/marmalade/6.0/modules/iwutil/h/IwDivide.h'
p982
(lp983
I1
ag896
asS'c:/marmalade/6.0/modules/iwutil/h/IwAutoFile.h'
p984
(lp985
I1
ag896
asS'c:/marmalade/6.0/modules/iwutil/h/IwRandom.h'
p986
(lp987
I1
ag896
asS'c:/marmalade/6.0/modules/iwutil/h/IwImageHelper.h'
p988
(lp989
I1
ag896
asS'c:/marmalade/6.0/modules/iwutil/h/IwDebug.h'
p990
(lp991
I1
ag896
asS'c:/marmalade/6.0/modules/iwutil/h/IwTypes.h'
p992
(lp993
I1
ag896
asS'c:/marmalade/6.0/modules/iwutil/docs/iwutil.config.txt'
p994
(lp995
I1
ag896
asssS'Source'
p996
(dp997
S'C:/Users/Flash/Documents/mobile_workspace/GardenWars/source/Config.h'
p998
(lp999
I1
a(dp1000
asS'game'
p1001
(dp1002
S'C:/Users/Flash/Documents/mobile_workspace/GardenWars/source/World.cpp'
p1003
(lp1004
I1
ag1000
asS'C:/Users/Flash/Documents/mobile_workspace/GardenWars/source/Star.cpp'
p1005
(lp1006
I1
ag1000
asS'C:/Users/Flash/Documents/mobile_workspace/GardenWars/source/BallBot.h'
p1007
(lp1008
I1
ag1000
asS'C:/Users/Flash/Documents/mobile_workspace/GardenWars/source/Star.h'
p1009
(lp1010
I1
ag1000
asS'C:/Users/Flash/Documents/mobile_workspace/GardenWars/source/World.h'
p1011
(lp1012
I1
ag1000
asS'C:/Users/Flash/Documents/mobile_workspace/GardenWars/source/BallBot.cpp'
p1013
(lp1014
I1
ag1000
assS'C:/Users/Flash/Documents/mobile_workspace/GardenWars/source/Main.cpp'
p1015
(lp1016
I1
ag1000
assS'(zlib)'
p1017
(dp1018
Vc:/users/flash/appdata/roaming/marmalade/packages/6.0.1/zlib_1.2.4/h/zconf.h
p1019
(lp1020
I1
a(dp1021
asVc:/users/flash/appdata/roaming/marmalade/packages/6.0.1/zlib_1.2.4/zlib.mkf
p1022
(lp1023
I1
a(dp1024
asVc:/users/flash/appdata/roaming/marmalade/packages/6.0.1/zlib_1.2.4/h/zlib.h
p1025
(lp1026
I1
ag1021
assS'(libpng)'
p1027
(dp1028
Vc:/users/flash/appdata/roaming/marmalade/packages/6.0.1/libpng_1.2.34/libpng.mkf
p1029
(lp1030
I1
a(dp1031
asVc:/users/flash/appdata/roaming/marmalade/packages/6.0.1/libpng_1.2.34/h/pngconf.h
p1032
(lp1033
I1
a(dp1034
asVc:/users/flash/appdata/roaming/marmalade/packages/6.0.1/libpng_1.2.34/h/png.h
p1035
(lp1036
I1
ag1034
assS'(libjpeg)'
p1037
(dp1038
Vc:/users/flash/appdata/roaming/marmalade/packages/6.0.1/libjpeg_6b/h/jinclude.h
p1039
(lp1040
I1
a(dp1041
asVc:/users/flash/appdata/roaming/marmalade/packages/6.0.1/libjpeg_6b/h/jconfig.h
p1042
(lp1043
I1
ag1041
asVc:/users/flash/appdata/roaming/marmalade/packages/6.0.1/libjpeg_6b/h/jerror.h
p1044
(lp1045
I1
ag1041
asVc:/users/flash/appdata/roaming/marmalade/packages/6.0.1/libjpeg_6b/h/jmemsys.h
p1046
(lp1047
I1
ag1041
asVc:/users/flash/appdata/roaming/marmalade/packages/6.0.1/libjpeg_6b/h/jversion.h
p1048
(lp1049
I1
ag1041
asVc:/users/flash/appdata/roaming/marmalade/packages/6.0.1/libjpeg_6b/h/cderror.h
p1050
(lp1051
I1
ag1041
asVc:/users/flash/appdata/roaming/marmalade/packages/6.0.1/libjpeg_6b/h/jmorecfg.h
p1052
(lp1053
I1
ag1041
asVc:/users/flash/appdata/roaming/marmalade/packages/6.0.1/libjpeg_6b/h/jpegint.h
p1054
(lp1055
I1
ag1041
asVc:/users/flash/appdata/roaming/marmalade/packages/6.0.1/libjpeg_6b/h/transupp.h
p1056
(lp1057
I1
ag1041
asVc:/users/flash/appdata/roaming/marmalade/packages/6.0.1/libjpeg_6b/h/jdhuff.h
p1058
(lp1059
I1
ag1041
asVc:/users/flash/appdata/roaming/marmalade/packages/6.0.1/libjpeg_6b/h/jpeglib.h
p1060
(lp1061
I1
ag1041
asVc:/users/flash/appdata/roaming/marmalade/packages/6.0.1/libjpeg_6b/h/jdct.h
p1062
(lp1063
I1
ag1041
asVc:/users/flash/appdata/roaming/marmalade/packages/6.0.1/libjpeg_6b/h/jchuff.h
p1064
(lp1065
I1
ag1041
asVc:/users/flash/appdata/roaming/marmalade/packages/6.0.1/libjpeg_6b/h/cdjpeg.h
p1066
(lp1067
I1
ag1041
asVc:/users/flash/appdata/roaming/marmalade/packages/6.0.1/libjpeg_6b/libjpeg.mkf
p1068
(lp1069
I1
a(dp1070
asssS'files'
p1071
(dp1072
S'IwGxFontPreparedData.h'
p1073
(g726
(lp1074
S"'Marmalade Studio'"
p1075
ag724
ag728
tp1076
sS'iterator'
p1077
(S'c:/marmalade/6.0/s3e/h/std/c++/iterator'
p1078
(lp1079
S"'Marmalade System (S3E)'"
p1080
aS'stdc headers'
p1081
aS'c++'
p1082
a(dp1083
tp1084
sS'IwGeomPlane.h'
p1085
(g790
(lp1086
S"'Marmalade Studio'"
p1087
ag746
ag750
tp1088
sS's3e.h'
p1089
(S'c:/marmalade/6.0/s3e/h/s3e.h'
p1090
(lp1091
g1080
ag1083
tp1092
sS'errno.h'
p1093
(S'c:/marmalade/6.0/s3e/h/std/errno.h'
p1094
(lp1095
g1080
aS'stdc headers'
p1096
ag1083
tp1097
sS'IwSingleton.h'
p1098
(g949
(lp1099
S"'Marmalade Studio'"
p1100
ag892
ag896
tp1101
sS'dlfcn.h'
p1102
(S'c:/marmalade/6.0/s3e/h/std/dlfcn.h'
p1103
g1095
g1083
tp1104
sS'stdio_streambuf'
p1105
(S'c:/marmalade/6.0/s3e/h/std/c++/stdio_streambuf'
p1106
g1079
g1083
tp1107
sS'sched.h'
p1108
(S'c:/marmalade/6.0/s3e/h/std/sched.h'
p1109
g1095
g1083
tp1110
sS'IwGeomFMat2D.h'
p1111
(g802
g1086
g750
tp1112
sS's3eExt.h'
p1113
(S'c:/marmalade/6.0/s3e/h/s3eExt.h'
p1114
g1091
g1083
tp1115
sS'grp.h'
p1116
(S'c:/marmalade/6.0/s3e/h/std/grp.h'
p1117
g1095
g1083
tp1118
sS'list'
p1119
(S'c:/marmalade/6.0/s3e/h/std/c++/list'
p1120
g1079
g1083
tp1121
sS'istream'
p1122
(S'c:/marmalade/6.0/s3e/h/std/c++/istream'
p1123
g1079
g1083
tp1124
sVjpeglib.h
p1125
(g1060
(lp1126
g1037
ag1041
tp1127
sS'iw2d_public.defines.txt'
p1128
(g722
(lp1129
S"'Marmalade Studio'"
p1130
ag712
ag719
tp1131
sS'iostream.h'
p1132
(S'c:/marmalade/6.0/s3e/h/std/c++/iostream.h'
p1133
g1079
g1083
tp1134
sS'string'
p1135
(S'c:/marmalade/6.0/s3e/h/std/c++/string'
p1136
g1079
g1083
tp1137
sS'IwMemory.h'
p1138
(g913
g1099
g896
tp1139
sS'IwGL.h'
p1140
(g705
(lp1141
S"'Marmalade Studio'"
p1142
ag700
ag707
tp1143
sS'iw2d.config.txt'
p1144
(g717
g1129
g719
tp1145
sS'iomanip'
p1146
(S'c:/marmalade/6.0/s3e/h/std/c++/iomanip'
p1147
g1079
g1083
tp1148
sS'iwgeom.mkf'
p1149
(g751
g1086
g753
tp1150
sS'IwGxError.h'
p1151
(g851
(lp1152
S"'Marmalade Studio'"
p1153
ag834
ag838
tp1154
sS'IwGeom.h'
p1155
(g754
g1086
g750
tp1156
sS'IwGeomVec4.h'
p1157
(g784
g1086
g750
tp1158
sS'dir.h'
p1159
(S'c:/marmalade/6.0/s3e/h/std/sys/dir.h'
p1160
(lp1161
g1080
aS'stdc headers'
p1162
aS'sys'
p1163
ag1083
tp1164
sS'locale.h'
p1165
(S'c:/marmalade/6.0/s3e/h/std/locale.h'
p1166
g1095
g1083
tp1167
sS'vector'
p1168
(S'c:/marmalade/6.0/s3e/h/std/c++/vector'
p1169
g1079
g1083
tp1170
sS'IwManaged.h'
p1171
(g955
g1099
g896
tp1172
sS's3eCompass.h'
p1173
(S'c:/marmalade/6.0/s3e/h/s3eCompass.h'
p1174
g1091
g1083
tp1175
sVcderror.h
p1176
(g1050
g1126
g1041
tp1177
sS'climits'
p1178
(S'c:/marmalade/6.0/s3e/h/std/c++/climits'
p1179
g1079
g1083
tp1180
sS's3eVibra.h'
p1181
(S'c:/marmalade/6.0/s3e/h/s3eVibra.h'
p1182
g1091
g1083
tp1183
sVjversion.h
p1184
(g1048
g1126
g1041
tp1185
sS'fnmatch.h'
p1186
(S'c:/marmalade/6.0/s3e/h/std/fnmatch.h'
p1187
g1095
g1083
tp1188
sS'IwGxState.h'
p1189
(g878
g1152
g838
tp1190
sS's3eAudio.h'
p1191
(S'c:/marmalade/6.0/s3e/h/s3eAudio.h'
p1192
g1091
g1083
tp1193
sS's3eSurface.h'
p1194
(S'c:/marmalade/6.0/s3e/h/s3eSurface.h'
p1195
g1091
g1083
tp1196
sS'new'
p1197
(S'c:/marmalade/6.0/s3e/h/std/c++/new'
p1198
g1079
g1083
tp1199
sS's3eWindow.h'
p1200
(S'c:/marmalade/6.0/s3e/h/ext/s3eWindow.h'
p1201
(lp1202
g1080
aS'Extensions'
p1203
ag1083
tp1204
sS'IwBuffer.h'
p1205
(g927
g1099
g896
tp1206
sS's3eOSExec.h'
p1207
(S'c:/marmalade/6.0/s3e/h/ext/s3eOSExec.h'
p1208
g1202
g1083
tp1209
sS'IwGxTransformSW.h'
p1210
(g849
g1152
g838
tp1211
sS'unistd.h'
p1212
(S'c:/marmalade/6.0/s3e/h/std/unistd.h'
p1213
g1095
g1083
tp1214
sS'iwgxfont.config.txt'
p1215
(g734
g1074
g728
tp1216
sS'gl2platform.h'
p1217
(S'c:/marmalade/6.0/s3e/h/GLES2/gl2platform.h'
p1218
(lp1219
g1080
aS'GL'
p1220
aS'GLES 2.0'
p1221
ag1083
tp1222
sS'IwResManagerClass.h'
p1223
(g821
(lp1224
g698
ag810
ag814
tp1225
sS'queue'
p1226
(S'c:/marmalade/6.0/s3e/h/std/c++/queue'
p1227
g1079
g1083
tp1228
sS'time_1.h'
p1229
(S'c:/marmalade/6.0/s3e/h/std/sys/time.h'
p1230
g1161
g1083
tp1231
sS'Iw2D.h'
p1232
(g720
g1129
g719
tp1233
sS'IwGeomVec2.h'
p1234
(g768
g1086
g750
tp1235
sS's3eDevice.h'
p1236
(S'c:/marmalade/6.0/s3e/h/s3eDevice.h'
p1237
g1091
g1083
tp1238
sS'Star.h'
p1239
(g1009
(lp1240
S'Source'
p1241
ag1001
ag1000
tp1242
sS'malloc.h'
p1243
(S'c:/marmalade/6.0/s3e/h/std/malloc.h'
p1244
g1095
g1083
tp1245
sS'stdarg.h'
p1246
(S'c:/marmalade/6.0/s3e/h/std/stdarg.h'
p1247
g1095
g1083
tp1248
sS'IwGeomCore.h'
p1249
(g778
g1086
g750
tp1250
sS'endian.h'
p1251
(S'c:/marmalade/6.0/s3e/h/std/endian.h'
p1252
g1095
g1083
tp1253
sS'glob.h'
p1254
(S'c:/marmalade/6.0/s3e/h/std/glob.h'
p1255
g1095
g1083
tp1256
sS'fstream'
p1257
(S'c:/marmalade/6.0/s3e/h/std/c++/fstream'
p1258
g1079
g1083
tp1259
sS's3eCamera.h'
p1260
(S'c:/marmalade/6.0/s3e/h/s3eCamera.h'
p1261
g1091
g1083
tp1262
sVjconfig.h
p1263
(g1042
g1126
g1041
tp1264
sS'memory'
p1265
(S'c:/marmalade/6.0/s3e/h/std/c++/memory'
p1266
g1079
g1083
tp1267
sS'egl.h'
p1268
(S'c:/marmalade/6.0/s3e/h/EGL/egl.h'
p1269
(lp1270
g1080
aS'GL'
p1271
aS'EGL'
p1272
ag1083
tp1273
sS'IwClip.inl'
p1274
(g839
g1152
g838
tp1275
sS'IwMemManagerDL.h'
p1276
(g919
g1099
g896
tp1277
sS'deque'
p1278
(S'c:/marmalade/6.0/s3e/h/std/c++/deque'
p1279
g1079
g1083
tp1280
sS'IwString.h'
p1281
(g933
g1099
g896
tp1282
sS'cctype'
p1283
(S'c:/marmalade/6.0/s3e/h/std/c++/cctype'
p1284
g1079
g1083
tp1285
sS'iwutil.mkf'
p1286
(g971
g1099
g973
tp1287
sS'csignal'
p1288
(S'c:/marmalade/6.0/s3e/h/std/c++/csignal'
p1289
g1079
g1083
tp1290
sS'float.h'
p1291
(S'c:/marmalade/6.0/s3e/h/std/float.h'
p1292
g1095
g1083
tp1293
sS'pthread_alloc'
p1294
(S'c:/marmalade/6.0/s3e/h/std/c++/pthread_alloc'
p1295
g1079
g1083
tp1296
sS'getopt.h'
p1297
(S'c:/marmalade/6.0/s3e/h/std/getopt.h'
p1298
g1095
g1083
tp1299
sS'IwOptimiseARM.h'
p1300
(g957
g1099
g896
tp1301
sS'times.h'
p1302
(S'c:/marmalade/6.0/s3e/h/std/sys/times.h'
p1303
g1161
g1083
tp1304
sS'IwGeomFSphere.h'
p1305
(g798
g1086
g750
tp1306
sS'IwTypes.h'
p1307
(g992
g1099
g896
tp1308
sS'IwGxMetrics.h'
p1309
(g865
g1152
g838
tp1310
sS's3eCompression.h'
p1311
(S'c:/marmalade/6.0/s3e/h/s3eCompression.h'
p1312
g1091
g1083
tp1313
sS'langinfo.h'
p1314
(S'c:/marmalade/6.0/s3e/h/std/langinfo.h'
p1315
g1095
g1083
tp1316
sS's3edebugHeap.h'
p1317
(S'c:/marmalade/6.0/s3e/h/ext/s3edebugHeap.h'
p1318
g1202
g1083
tp1319
sS'AirplayVersion.h'
p1320
(S'c:/marmalade/6.0/s3e/h/AirplayVersion.h'
p1321
g1091
g1083
tp1322
sS'gl2extimg.h'
p1323
(S'c:/marmalade/6.0/s3e/h/GLES2/gl2extimg.h'
p1324
g1219
g1083
tp1325
sS'app.config.txt'
p1326
(S'C:/Users/Flash/Documents/mobile_workspace/GardenWars/data/app.config.txt'
p1327
g4
(dp1328
tp1329
sS'IwGeomSqrt.h'
p1330
(g794
g1086
g750
tp1331
sS'syslog.h'
p1332
(S'c:/marmalade/6.0/s3e/h/std/syslog.h'
p1333
g1095
g1083
tp1334
sS'IwGxFontTypes.h'
p1335
(g744
g1074
g728
tp1336
sS'hash_map'
p1337
(S'c:/marmalade/6.0/s3e/h/std/c++/hash_map'
p1338
g1079
g1083
tp1339
sS's3e.mkf'
p1340
(S'c:/marmalade/6.0/s3e/s3e.mkf'
p1341
g1091
(dp1342
tp1343
sS's3eOSReadString.h'
p1344
(S'c:/marmalade/6.0/s3e/h/ext/s3eOSReadString.h'
p1345
g1202
g1083
tp1346
sS'map'
p1347
(S'c:/marmalade/6.0/s3e/h/std/c++/map'
p1348
g1079
g1083
tp1349
sS'IwOptimiseSpeed.h'
p1350
(g917
g1099
g896
tp1351
sS'msl_string.h'
p1352
(S'c:/marmalade/6.0/s3e/h/std/c++/msl_string.h'
p1353
g1079
g1083
tp1354
sS'select.h'
p1355
(S'c:/marmalade/6.0/s3e/h/std/sys/select.h'
p1356
g1161
g1083
tp1357
sVzlib.mkf
p1358
(g1022
(lp1359
g1017
ag1024
tp1360
sS'signal.h'
p1361
(S'c:/marmalade/6.0/s3e/h/std/signal.h'
p1362
g1095
g1083
tp1363
sS'sigcontext.h'
p1364
(S'c:/marmalade/6.0/s3e/h/std/sigcontext.h'
p1365
g1095
g1083
tp1366
sVlibpng.mkf
p1367
(g1029
(lp1368
g1027
ag1031
tp1369
sS's3eClipboard.h'
p1370
(S'c:/marmalade/6.0/s3e/h/s3eClipboard.h'
p1371
g1091
g1083
tp1372
sS'IwGxFuncTable.h'
p1373
(g845
g1152
g838
tp1374
sS'IwResHandlerGROUP.h'
p1375
(g812
g1224
g814
tp1376
sS's3eDebug.h'
p1377
(S'c:/marmalade/6.0/s3e/h/s3eDebug.h'
p1378
g1091
g1083
tp1379
sS'socket.h'
p1380
(S'c:/marmalade/6.0/s3e/h/std/sys/socket.h'
p1381
g1161
g1083
tp1382
sS'glext.h'
p1383
(S'c:/marmalade/6.0/s3e/h/GLES/glext.h'
p1384
(lp1385
g1080
aS'GL'
p1386
aS'GLES 1.x'
p1387
ag1083
tp1388
sS'typeinfo.h'
p1389
(S'c:/marmalade/6.0/s3e/h/std/c++/typeinfo.h'
p1390
g1079
g1083
tp1391
sS'typeinfo'
p1392
(S'c:/marmalade/6.0/s3e/h/std/c++/typeinfo'
p1393
g1079
g1083
tp1394
sS'fstream.h'
p1395
(S'c:/marmalade/6.0/s3e/h/std/c++/fstream.h'
p1396
g1079
g1083
tp1397
sS's3ePointer.h'
p1398
(S'c:/marmalade/6.0/s3e/h/s3ePointer.h'
p1399
g1091
g1083
tp1400
sS'iw2d.mkf'
p1401
(g714
g1129
g716
tp1402
sS's3eGL.h'
p1403
(S'c:/marmalade/6.0/s3e/h/s3eGL.h'
p1404
g1091
g1083
tp1405
sS'IwGeomFVec2.h'
p1406
(g756
g1086
g750
tp1407
sS'IwGeomSVec4.h'
p1408
(g776
g1086
g750
tp1409
sS'poll.h'
p1410
(S'c:/marmalade/6.0/s3e/h/std/poll.h'
p1411
g1095
g1083
tp1412
sS'IwMatAnim.h'
p1413
(g863
g1152
g838
tp1414
sS'IwGeomFVec4.h'
p1415
(g758
g1086
g750
tp1416
sS'IwGx.h'
p1417
(g880
g1152
g838
tp1418
sS'valarray'
p1419
(S'c:/marmalade/6.0/s3e/h/std/c++/valarray'
p1420
g1079
g1083
tp1421
sS'iosfwd'
p1422
(S'c:/marmalade/6.0/s3e/h/std/c++/iosfwd'
p1423
g1079
g1083
tp1424
sS'gl2.h'
p1425
(S'c:/marmalade/6.0/s3e/h/GLES2/gl2.h'
p1426
g1219
g1083
tp1427
sS'IwGxRenderSW.h'
p1428
(g886
g1152
g838
tp1429
sS'IwManagedList.h'
p1430
(g937
g1099
g896
tp1431
sS'stdiostream.h'
p1432
(S'c:/marmalade/6.0/s3e/h/std/c++/stdiostream.h'
p1433
g1079
g1083
tp1434
sS'mem.h'
p1435
(S'c:/marmalade/6.0/s3e/h/std/c++/mem.h'
p1436
g1079
g1083
tp1437
sVjerror.h
p1438
(g1044
g1126
g1041
tp1439
sVzconf.h
p1440
(g1019
g1359
g1021
tp1441
sS's3e.config.txt'
p1442
(S'c:/marmalade/6.0/s3e/s3e.config.txt'
p1443
g1091
g1083
tp1444
sS'numeric'
p1445
(S'c:/marmalade/6.0/s3e/h/std/c++/numeric'
p1446
g1079
g1083
tp1447
sS'utime.h'
p1448
(S'c:/marmalade/6.0/s3e/h/std/utime.h'
p1449
g1095
g1083
tp1450
sVjdhuff.h
p1451
(g1058
g1126
g1041
tp1452
sS'IwGxStream.h'
p1453
(g888
g1152
g838
tp1454
sS'IwImage.h'
p1455
(g929
g1099
g896
tp1456
sS's3eImagePicker.h'
p1457
(S'c:/marmalade/6.0/s3e/h/ext/s3eImagePicker.h'
p1458
g1202
g1083
tp1459
sS'IwTextParserITX.h'
p1460
(g945
g1099
g896
tp1461
sS'stdlib.h'
p1462
(S'c:/marmalade/6.0/s3e/h/std/stdlib.h'
p1463
g1095
g1083
tp1464
sS'IwCopyingPtr.h'
p1465
(g899
g1099
g896
tp1466
sS'iostream'
p1467
(S'c:/marmalade/6.0/s3e/h/std/c++/iostream'
p1468
g1079
g1083
tp1469
sVpng.h
p1470
(g1035
g1368
g1034
tp1471
sS'stddef.h'
p1472
(S'c:/marmalade/6.0/s3e/h/std/stddef.h'
p1473
g1095
g1083
tp1474
sS'setjmp_win32.h'
p1475
(S'c:/marmalade/6.0/s3e/h/std/setjmp_win32.h'
p1476
g1095
g1083
tp1477
sS'IwGxPrint.h'
p1478
(g836
g1152
g838
tp1479
sS'iwgx_public.defines.txt'
p1480
(g874
g1152
g838
tp1481
sS'streambuf.h'
p1482
(S'c:/marmalade/6.0/s3e/h/std/c++/streambuf.h'
p1483
g1079
g1083
tp1484
sS'wchar.h'
p1485
(S'c:/marmalade/6.0/s3e/h/std/wchar.h'
p1486
g1095
g1083
tp1487
sS's3eCameraCapture.h'
p1488
(S'c:/marmalade/6.0/s3e/h/ext/s3eCameraCapture.h'
p1489
g1202
g1083
tp1490
sS'eglext.h'
p1491
(S'c:/marmalade/6.0/s3e/h/EGL/eglext.h'
p1492
g1270
g1083
tp1493
sS'IwResHandlerImage.h'
p1494
(g823
g1224
g814
tp1495
sS'strstream.h'
p1496
(S'c:/marmalade/6.0/s3e/h/std/c++/strstream.h'
p1497
g1079
g1083
tp1498
sS'BallBot.h'
p1499
(g1007
g1240
g1000
tp1500
sS'IwGLExt.h'
p1501
(g710
g1141
g707
tp1502
sS'World.h'
p1503
(g1011
g1240
g1000
tp1504
sS'app.icf'
p1505
(S'C:/Users/Flash/Documents/mobile_workspace/GardenWars/data/app.icf'
p1506
g4
(dp1507
tp1508
sS'IwClassFactory.h'
p1509
(g967
g1099
g896
tp1510
sS'file.h'
p1511
(S'c:/marmalade/6.0/s3e/h/std/sys/file.h'
p1512
g1161
g1083
tp1513
sS'cstring'
p1514
(S'c:/marmalade/6.0/s3e/h/std/c++/cstring'
p1515
g1079
g1083
tp1516
sS'iwutil.config.txt'
p1517
(g994
g1099
g896
tp1518
sS's3eSMS.h'
p1519
(S'c:/marmalade/6.0/s3e/h/ext/s3eSMS.h'
p1520
g1202
g1083
tp1521
sS'limits.h'
p1522
(S'c:/marmalade/6.0/s3e/h/std/limits.h'
p1523
g1095
g1083
tp1524
sS'iwgl.config.txt'
p1525
(g708
g1141
g707
tp1526
sS'IwMaterial.h'
p1527
(g859
g1152
g838
tp1528
sS'IwGxSurface.h'
p1529
(g843
g1152
g838
tp1530
sS's3eSocket.h'
p1531
(S'c:/marmalade/6.0/s3e/h/s3eSocket.h'
p1532
g1091
g1083
tp1533
sS'IwAutoFile.h'
p1534
(g984
g1099
g896
tp1535
sS'ipc.h'
p1536
(S'c:/marmalade/6.0/s3e/h/std/sys/ipc.h'
p1537
g1161
g1083
tp1538
sS'poll_1.h'
p1539
(S'c:/marmalade/6.0/s3e/h/std/sys/poll.h'
p1540
g1161
g1083
tp1541
sS's3eThread.h'
p1542
(S'c:/marmalade/6.0/s3e/h/s3eThread.h'
p1543
g1091
g1083
tp1544
sS'ucontext.h'
p1545
(S'c:/marmalade/6.0/s3e/h/std/ucontext.h'
p1546
g1095
g1083
tp1547
sS'time.h'
p1548
(S'c:/marmalade/6.0/s3e/h/std/time.h'
p1549
g1095
g1083
tp1550
sVjchuff.h
p1551
(g1064
g1126
g1041
tp1552
sS's3eSoundRecord.h'
p1553
(S'c:/marmalade/6.0/s3e/h/s3eSoundRecord.h'
p1554
g1091
g1083
tp1555
sS'IwFibre.h'
p1556
(g961
g1099
g896
tp1557
sS's3eVersion.h'
p1558
(S'c:/marmalade/6.0/s3e/h/s3eVersion.h'
p1559
g1091
g1083
tp1560
sS'IwGxFontGlyph.h'
p1561
(g742
g1074
g728
tp1562
sS's3eTypes.h'
p1563
(S'c:/marmalade/6.0/s3e/h/s3eTypes.h'
p1564
g1091
g1083
tp1565
sS'signal_2.h'
p1566
(S'c:/marmalade/6.0/s3e/h/std/c++/signal.h'
p1567
g1079
g1083
tp1568
sS'termios.h'
p1569
(S'c:/marmalade/6.0/s3e/h/std/termios.h'
p1570
g1095
g1083
tp1571
sS'slist'
p1572
(S'c:/marmalade/6.0/s3e/h/std/c++/slist'
p1573
g1079
g1083
tp1574
sS'cstdlib'
p1575
(S'c:/marmalade/6.0/s3e/h/std/c++/cstdlib'
p1576
g1079
g1083
tp1577
sS's3eLocation.h'
p1578
(S'c:/marmalade/6.0/s3e/h/s3eLocation.h'
p1579
g1091
g1083
tp1580
sS'IwMemBucketHelpers.h'
p1581
(g980
g1099
g896
tp1582
sS's3eHash.h'
p1583
(S'c:/marmalade/6.0/s3e/h/s3eHash.h'
p1584
g1091
g1083
tp1585
sS'IwGeomFMat.h'
p1586
(g748
g1086
g750
tp1587
sS'type_traits.h'
p1588
(S'c:/marmalade/6.0/s3e/h/std/c++/type_traits.h'
p1589
g1079
g1083
tp1590
sS'IwMenu.h'
p1591
(g939
g1099
g896
tp1592
sS'IwResHandlerITX.h'
p1593
(g819
g1224
g814
tp1594
sS'IwArray.h'
p1595
(g925
g1099
g896
tp1596
sS'IwUTF8.h'
p1597
(g965
g1099
g896
tp1598
sS'math_rvct.h'
p1599
(S'c:/marmalade/6.0/s3e/h/std/math_rvct.h'
p1600
g1095
g1083
tp1601
sS'IwUtil.h'
p1602
(g931
g1099
g896
tp1603
sS'wctype.h'
p1604
(S'c:/marmalade/6.0/s3e/h/std/wctype.h'
p1605
g1095
g1083
tp1606
sS'cstddef'
p1607
(S'c:/marmalade/6.0/s3e/h/std/c++/cstddef'
p1608
g1079
g1083
tp1609
sS'assert.h'
p1610
(S'c:/marmalade/6.0/s3e/h/std/assert.h'
p1611
g1095
g1083
tp1612
sS'mman.h'
p1613
(S'c:/marmalade/6.0/s3e/h/std/sys/mman.h'
p1614
g1161
g1083
tp1615
sS'IwRandom.h'
p1616
(g986
g1099
g896
tp1617
sS'libgen.h'
p1618
(S'c:/marmalade/6.0/s3e/h/std/libgen.h'
p1619
g1095
g1083
tp1620
sS'utsname.h'
p1621
(S'c:/marmalade/6.0/s3e/h/std/sys/utsname.h'
p1622
g1161
g1083
tp1623
sS'wait.h'
p1624
(S'c:/marmalade/6.0/s3e/h/std/sys/wait.h'
p1625
g1161
g1083
tp1626
sS'param.h'
p1627
(S'c:/marmalade/6.0/s3e/h/std/sys/param.h'
p1628
g1161
g1083
tp1629
sS'IwDivide.h'
p1630
(g982
g1099
g896
tp1631
sS'IwResManager.h'
p1632
(g815
g1224
g814
tp1633
sS'ostream'
p1634
(S'c:/marmalade/6.0/s3e/h/std/c++/ostream'
p1635
g1079
g1083
tp1636
sS'cwctype'
p1637
(S'c:/marmalade/6.0/s3e/h/std/c++/cwctype'
p1638
g1079
g1083
tp1639
sS'set'
p1640
(S'c:/marmalade/6.0/s3e/h/std/c++/set'
p1641
g1079
g1083
tp1642
sS'IwGeomSQuat.h'
p1643
(g764
g1086
g750
tp1644
sS'locale'
p1645
(S'c:/marmalade/6.0/s3e/h/std/c++/locale'
p1646
g1079
g1083
tp1647
sS'cstdio'
p1648
(S'c:/marmalade/6.0/s3e/h/std/c++/cstdio'
p1649
g1079
g1083
tp1650
sVcdjpeg.h
p1651
(g1066
g1126
g1041
tp1652
sS'IwList.h'
p1653
(g969
g1099
g896
tp1654
sS'inttypes.h'
p1655
(S'c:/marmalade/6.0/s3e/h/std/inttypes.h'
p1656
g1095
g1083
tp1657
sS'dirent.h'
p1658
(S'c:/marmalade/6.0/s3e/h/std/dirent.h'
p1659
g1095
g1083
tp1660
sS'IwGeomVec3.h'
p1661
(g772
g1086
g750
tp1662
sVtransupp.h
p1663
(g1056
g1126
g1041
tp1664
sS'IwMath.h'
p1665
(g897
g1099
g896
tp1666
sS'IwGeomQuat.h'
p1667
(g774
g1086
g750
tp1668
sS'glplatform.h'
p1669
(S'c:/marmalade/6.0/s3e/h/GLES/glplatform.h'
p1670
g1385
g1083
tp1671
sS'bitset'
p1672
(S'c:/marmalade/6.0/s3e/h/std/c++/bitset'
p1673
g1079
g1083
tp1674
sS'alloca.h'
p1675
(S'c:/marmalade/6.0/s3e/h/std/alloca.h'
p1676
g1095
g1083
tp1677
sS'IwResHandler.h'
p1678
(g832
g1224
g814
tp1679
sS'IwResHandlerMTL.h'
p1680
(g890
g1152
g838
tp1681
sS'IwRuntime.h'
p1682
(g909
g1099
g896
tp1683
sS'limits'
p1684
(S'c:/marmalade/6.0/s3e/h/std/c++/limits'
p1685
g1079
g1083
tp1686
sS'IwGeomBBox.h'
p1687
(g792
g1086
g750
tp1688
sS's3eContacts.h'
p1689
(S'c:/marmalade/6.0/s3e/h/s3eContacts.h'
p1690
g1091
g1083
tp1691
sS's3eLicense.h'
p1692
(S'c:/marmalade/6.0/s3e/h/s3eLicense.h'
p1693
g1091
g1083
tp1694
sS'iwgx.config.txt'
p1695
(g861
g1152
g838
tp1696
sS'IwTextParser.h'
p1697
(g963
g1099
g896
tp1698
sS's3eTimer.h'
p1699
(S'c:/marmalade/6.0/s3e/h/s3eTimer.h'
p1700
g1091
g1083
tp1701
sS'IwGeomVec.h'
p1702
(g808
g1086
g750
tp1703
sS'IwSerialise.h'
p1704
(g923
g1099
g896
tp1705
sS'cstdarg'
p1706
(S'c:/marmalade/6.0/s3e/h/std/c++/cstdarg'
p1707
g1079
g1083
tp1708
sS'gl2ext.h'
p1709
(S'c:/marmalade/6.0/s3e/h/GLES2/gl2ext.h'
p1710
g1219
g1083
tp1711
sS'IwChar.h'
p1712
(g911
g1099
g896
tp1713
sS's3eSound.h'
p1714
(S'c:/marmalade/6.0/s3e/h/s3eSound.h'
p1715
g1091
g1083
tp1716
sS'IwOptimiseThumb.h'
p1717
(g907
g1099
g896
tp1718
sS'exception.h'
p1719
(S'c:/marmalade/6.0/s3e/h/std/c++/exception.h'
p1720
g1079
g1083
tp1721
sS'iwgeom.config.txt'
p1722
(g800
g1086
g750
tp1723
sS'iwgx.mkf'
p1724
(g867
g1152
g869
tp1725
sS'gl.h'
p1726
(S'c:/marmalade/6.0/s3e/h/GLES/gl.h'
p1727
g1385
g1083
tp1728
sVzlib.h
p1729
(g1025
g1359
g1021
tp1730
sS'iwgl.mkf'
p1731
(g702
g1141
g704
tp1732
sS'IwColour.h'
p1733
(g853
g1152
g838
tp1734
sS's3eLibrary.h'
p1735
(S'c:/marmalade/6.0/s3e/h/ext/s3eLibrary.h'
p1736
g1202
g1083
tp1737
sS'types.h'
p1738
(S'c:/marmalade/6.0/s3e/h/std/sys/types.h'
p1739
g1161
g1083
tp1740
sS'ifaddrs.h'
p1741
(S'c:/marmalade/6.0/s3e/h/std/ifaddrs.h'
p1742
g1095
g1083
tp1743
sS'strstream'
p1744
(S'c:/marmalade/6.0/s3e/h/std/c++/strstream'
p1745
g1079
g1083
tp1746
sS'exception'
p1747
(S'c:/marmalade/6.0/s3e/h/std/c++/exception'
p1748
g1079
g1083
tp1749
sS'rlocks.h'
p1750
(S'c:/marmalade/6.0/s3e/h/std/c++/rlocks.h'
p1751
g1079
g1083
tp1752
sS'ioctl.h'
p1753
(S'c:/marmalade/6.0/s3e/h/std/sys/ioctl.h'
p1754
g1161
g1083
tp1755
sS'rope'
p1756
(S'c:/marmalade/6.0/s3e/h/std/c++/rope'
p1757
g1079
g1083
tp1758
sVjinclude.h
p1759
(g1039
g1126
g1041
tp1760
sS'IwEvent.h'
p1761
(g903
g1099
g896
tp1762
sS'IwOptimiseSize.h'
p1763
(g959
g1099
g896
tp1764
sS'iwgxfont_public.defines.txt'
p1765
(g740
g1074
g728
tp1766
sS'iconv.h'
p1767
(S'c:/marmalade/6.0/s3e/h/std/iconv.h'
p1768
g1095
g1083
tp1769
sS'sendfile.h'
p1770
(S'c:/marmalade/6.0/s3e/h/std/sys/sendfile.h'
p1771
g1161
g1083
tp1772
sS'IwGeomSphere.h'
p1773
(g804
g1086
g750
tp1774
sVjdct.h
p1775
(g1062
g1126
g1041
tp1776
sS'cwchar'
p1777
(S'c:/marmalade/6.0/s3e/h/std/c++/cwchar'
p1778
g1079
g1083
tp1779
sS's3eConfig.h'
p1780
(S'c:/marmalade/6.0/s3e/h/s3eConfig.h'
p1781
g1091
g1083
tp1782
sS'IwHashString.h'
p1783
(g921
g1099
g896
tp1784
sS'stat.h'
p1785
(S'c:/marmalade/6.0/s3e/h/std/sys/stat.h'
p1786
g1161
g1083
tp1787
sS'byteswap.h'
p1788
(S'c:/marmalade/6.0/s3e/h/std/byteswap.h'
p1789
g1095
g1083
tp1790
sS'iwresmanager.mkf'
p1791
(g825
g1224
g827
tp1792
sS'IwUtilInitTerm.h'
p1793
(g901
g1099
g896
tp1794
sS'pthread_1.h'
p1795
(S'c:/marmalade/6.0/s3e/h/std/c++/pthread.h'
p1796
g1079
g1083
tp1797
sS'IwMemBucket.h'
p1798
(g976
g1099
g896
tp1799
sS'complex'
p1800
(S'c:/marmalade/6.0/s3e/h/std/c++/complex'
p1801
g1079
g1083
tp1802
sS'IwGxMotionBlur.h'
p1803
(g847
g1152
g838
tp1804
sS's3e.icf'
p1805
(S'c:/marmalade/6.0/s3e/s3e.icf'
p1806
g1091
g1083
tp1807
sS'IwVariableBitField.h'
p1808
(g978
g1099
g896
tp1809
sS'sem.h'
p1810
(S'c:/marmalade/6.0/s3e/h/std/sys/sem.h'
p1811
g1161
g1083
tp1812
sS'IwGxFontState.h'
p1813
(g736
g1074
g728
tp1814
sS'stdio.h'
p1815
(S'c:/marmalade/6.0/s3e/h/std/stdio.h'
p1816
g1095
g1083
tp1817
sVjmemsys.h
p1818
(g1046
g1126
g1041
tp1819
sS'ios'
p1820
(S'c:/marmalade/6.0/s3e/h/std/c++/ios'
p1821
g1079
g1083
tp1822
sS'IwGxDrawSW.h'
p1823
(g855
g1152
g838
tp1824
sS'stack'
p1825
(S'c:/marmalade/6.0/s3e/h/std/c++/stack'
p1826
g1079
g1083
tp1827
sS'new.h'
p1828
(S'c:/marmalade/6.0/s3e/h/std/c++/new.h'
p1829
g1079
g1083
tp1830
sS's3eEMail.h'
p1831
(S'c:/marmalade/6.0/s3e/h/ext/s3eEMail.h'
p1832
g1202
g1083
tp1833
sS's3eVideo.h'
p1834
(S'c:/marmalade/6.0/s3e/h/s3eVideo.h'
p1835
g1091
g1083
tp1836
sS'IwFile.h'
p1837
(g935
g1099
g896
tp1838
sS'pwd.h'
p1839
(S'c:/marmalade/6.0/s3e/h/std/pwd.h'
p1840
g1095
g1083
tp1841
sS'IwClip.h'
p1842
(g870
g1152
g838
tp1843
sS'iwresmanager.config.txt'
p1844
(g817
g1224
g814
tp1845
sS'IwGxShaderTechnique.h'
p1846
(g884
g1152
g838
tp1847
sS'IwCore.h'
p1848
(g905
g1099
g896
tp1849
sS'cfloat'
p1850
(S'c:/marmalade/6.0/s3e/h/std/c++/cfloat'
p1851
g1079
g1083
tp1852
sS'IwGeomMat2D.h'
p1853
(g782
g1086
g750
tp1854
sS'IwAllocator.h'
p1855
(g894
g1099
g896
tp1856
sS'IwPath.h'
p1857
(g947
g1099
g896
tp1858
sS'iwgxfont.mkf'
p1859
(g731
g1074
g733
tp1860
sS'IwTexture.h'
p1861
(g872
g1152
g838
tp1862
sS'Star.cpp'
p1863
(g1005
g1240
g1000
tp1864
sS's3eAccelerometer.h'
p1865
(S'c:/marmalade/6.0/s3e/h/s3eAccelerometer.h'
p1866
g1091
g1083
tp1867
sS'setjmp.h'
p1868
(S'c:/marmalade/6.0/s3e/h/std/setjmp.h'
p1869
g1095
g1083
tp1870
sVpngconf.h
p1871
(g1032
g1368
g1034
tp1872
sS'IwTextParseable.h'
p1873
(g943
g1099
g896
tp1874
sS'istream.h'
p1875
(S'c:/marmalade/6.0/s3e/h/std/c++/istream.h'
p1876
g1079
g1083
tp1877
sS'stdint.h'
p1878
(S'c:/marmalade/6.0/s3e/h/std/stdint.h'
p1879
g1095
g1083
tp1880
sS'semaphore.h'
p1881
(S'c:/marmalade/6.0/s3e/h/std/semaphore.h'
p1882
g1095
g1083
tp1883
sS'Main.cpp'
p1884
(g1015
(lp1885
g996
ag1000
tp1886
sS'ctime'
p1887
(S'c:/marmalade/6.0/s3e/h/std/c++/ctime'
p1888
g1079
g1083
tp1889
sS'sstream'
p1890
(S'c:/marmalade/6.0/s3e/h/std/c++/sstream'
p1891
g1079
g1083
tp1892
sS'IwGeomFBBox.h'
p1893
(g766
g1086
g750
tp1894
sS'IwDebugPrim.h'
p1895
(g857
g1152
g838
tp1896
sS'IwGxFontContainer.h'
p1897
(g738
g1074
g728
tp1898
sS'BallBot.cpp'
p1899
(g1013
g1240
g1000
tp1900
sS'IwGeomSVec3.h'
p1901
(g786
g1086
g750
tp1902
sS'cassert'
p1903
(S'c:/marmalade/6.0/s3e/h/std/c++/cassert'
p1904
g1079
g1083
tp1905
sS'IwGeomFVec3.h'
p1906
(g796
g1086
g750
tp1907
sS'streambuf'
p1908
(S'c:/marmalade/6.0/s3e/h/std/c++/streambuf'
p1909
g1079
g1083
tp1910
sS's3eMetrics.h'
p1911
(S'c:/marmalade/6.0/s3e/h/ext/s3eMetrics.h'
p1912
g1202
g1083
tp1913
sS'IwGxFont.h'
p1914
(g729
g1074
g728
tp1915
sS's3eSecureStorage.h'
p1916
(S'c:/marmalade/6.0/s3e/h/s3eSecureStorage.h'
p1917
g1091
g1083
tp1918
sS'string.h'
p1919
(S'c:/marmalade/6.0/s3e/h/std/string.h'
p1920
g1095
g1083
tp1921
sS'IwResource.h'
p1922
(g974
g1099
g896
tp1923
sS'IwGeomSVec2.h'
p1924
(g780
g1086
g750
tp1925
sVlibjpeg.mkf
p1926
(g1068
g1126
g1070
tp1927
sS'IwGxDebug.h'
p1928
(g882
g1152
g838
tp1929
sS'pthread_types.h'
p1930
(S'c:/marmalade/6.0/s3e/h/std/pthread_types.h'
p1931
g1095
g1083
tp1932
sS'iomanip.h'
p1933
(S'c:/marmalade/6.0/s3e/h/std/c++/iomanip.h'
p1934
g1079
g1083
tp1935
sS'IwKeymap.h'
p1936
(g953
g1099
g896
tp1937
sS'IwDebug.h'
p1938
(g990
g1099
g896
tp1939
sS's3eIOSBackgroundAudio.h'
p1940
(S'c:/marmalade/6.0/s3e/h/ext/s3eIOSBackgroundAudio.h'
p1941
g1202
g1083
tp1942
sS'IwGeomMenu.h'
p1943
(g806
g1086
g750
tp1944
sS'IwDivTable.h'
p1945
(g941
g1099
g896
tp1946
sS'ctype.h'
p1947
(S'c:/marmalade/6.0/s3e/h/std/ctype.h'
p1948
g1095
g1083
tp1949
sS'IwGeomMat.h'
p1950
(g770
g1086
g750
tp1951
sS'IwResGroup.h'
p1952
(g830
g1224
g814
tp1953
sS'signal_1.h'
p1954
(S'c:/marmalade/6.0/s3e/h/std/sys/signal.h'
p1955
g1161
g1083
tp1956
sS'functional'
p1957
(S'c:/marmalade/6.0/s3e/h/std/c++/functional'
p1958
g1079
g1083
tp1959
sS'shm.h'
p1960
(S'c:/marmalade/6.0/s3e/h/std/sys/shm.h'
p1961
g1161
g1083
tp1962
sVjpegint.h
p1963
(g1054
g1126
g1041
tp1964
sS'prctl.h'
p1965
(S'c:/marmalade/6.0/s3e/h/std/sys/prctl.h'
p1966
g1161
g1083
tp1967
sS'un.h'
p1968
(S'c:/marmalade/6.0/s3e/h/std/sys/un.h'
p1969
g1161
g1083
tp1970
sS'utility'
p1971
(S'c:/marmalade/6.0/s3e/h/std/c++/utility'
p1972
g1079
g1083
tp1973
sS'IwGeomLegacy.h'
p1974
(g762
g1086
g750
tp1975
sS'IwTPage.h'
p1976
(g841
g1152
g838
tp1977
sS'IwResSerialise.h'
p1978
(g828
g1224
g814
tp1979
sS's3eCrypto.h'
p1980
(S'c:/marmalade/6.0/s3e/h/s3eCrypto.h'
p1981
g1091
g1083
tp1982
sS's3eKeyboard.h'
p1983
(S'c:/marmalade/6.0/s3e/h/s3eKeyboard.h'
p1984
g1091
g1083
tp1985
sS'fcntl.h'
p1986
(S'c:/marmalade/6.0/s3e/h/std/fcntl.h'
p1987
g1095
g1083
tp1988
sS'memory.h'
p1989
(S'c:/marmalade/6.0/s3e/h/std/memory.h'
p1990
g1095
g1083
tp1991
sS'pthread.h'
p1992
(S'c:/marmalade/6.0/s3e/h/std/pthread.h'
p1993
g1095
g1083
tp1994
sS'IwGeomIntersect.h'
p1995
(g760
g1086
g750
tp1996
sS'algorithm'
p1997
(S'c:/marmalade/6.0/s3e/h/std/c++/algorithm'
p1998
g1079
g1083
tp1999
sS'egl_1.h'
p2000
(S'c:/marmalade/6.0/s3e/h/GLES/egl.h'
p2001
g1385
g1083
tp2002
sS'ostream.h'
p2003
(S'c:/marmalade/6.0/s3e/h/std/c++/ostream.h'
p2004
g1079
g1083
tp2005
sS'stl_user_config.h'
p2006
(S'c:/marmalade/6.0/s3e/h/std/c++/stl_user_config.h'
p2007
g1079
g1083
tp2008
sS'IwProfileMenu.h'
p2009
(g915
g1099
g896
tp2010
sS'World.cpp'
p2011
(g1003
g1240
g1000
tp2012
sS'MarmaladeVersion.h'
p2013
(S'c:/marmalade/6.0/s3e/h/MarmaladeVersion.h'
p2014
g1091
g1083
tp2015
sS'ios.h'
p2016
(S'c:/marmalade/6.0/s3e/h/std/c++/ios.h'
p2017
g1079
g1083
tp2018
sS'IwImageHelper.h'
p2019
(g988
g1099
g896
tp2020
sS'hash_set'
p2021
(S'c:/marmalade/6.0/s3e/h/std/c++/hash_set'
p2022
g1079
g1083
tp2023
sS'IwGeomFQuat.h'
p2024
(g788
g1086
g750
tp2025
sVjmorecfg.h
p2026
(g1052
g1126
g1041
tp2027
sS'eglplatform.h'
p2028
(S'c:/marmalade/6.0/s3e/h/EGL/eglplatform.h'
p2029
g1270
g1083
tp2030
sS'stdbool.h'
p2031
(S'c:/marmalade/6.0/s3e/h/std/stdbool.h'
p2032
g1095
g1083
tp2033
sS'math_gcc.h'
p2034
(S'c:/marmalade/6.0/s3e/h/std/math_gcc.h'
p2035
g1095
g1083
tp2036
sS's3eMemory.h'
p2037
(S'c:/marmalade/6.0/s3e/h/s3eMemory.h'
p2038
g1091
g1083
tp2039
sS'Config.h'
p2040
(g998
g1885
g1000
tp2041
sS'strings.h'
p2042
(S'c:/marmalade/6.0/s3e/h/std/strings.h'
p2043
g1095
g1083
tp2044
sS's3eFile.h'
p2045
(S'c:/marmalade/6.0/s3e/h/s3eFile.h'
p2046
g1091
g1083
tp2047
sS'IwGxTypes.h'
p2048
(g876
g1152
g838
tp2049
sS'cerrno'
p2050
(S'c:/marmalade/6.0/s3e/h/std/c++/cerrno'
p2051
g1079
g1083
tp2052
sS'resource.h'
p2053
(S'c:/marmalade/6.0/s3e/h/std/sys/resource.h'
p2054
g1161
g1083
tp2055
sS'clocale'
p2056
(S'c:/marmalade/6.0/s3e/h/std/c++/clocale'
p2057
g1079
g1083
tp2058
sS'csetjmp'
p2059
(S'c:/marmalade/6.0/s3e/h/std/c++/csetjmp'
p2060
g1079
g1083
tp2061
sS'netdb.h'
p2062
(S'c:/marmalade/6.0/s3e/h/std/netdb.h'
p2063
g1095
g1083
tp2064
sS's3eAndroidJNI.h'
p2065
(S'c:/marmalade/6.0/s3e/h/ext/s3eAndroidJNI.h'
p2066
g1202
g1083
tp2067
sS'stdexcept'
p2068
(S'c:/marmalade/6.0/s3e/h/std/c++/stdexcept'
p2069
g1079
g1083
tp2070
sS'math.h'
p2071
(S'c:/marmalade/6.0/s3e/h/std/math.h'
p2072
g1095
g1083
tp2073
sS'cmath'
p2074
(S'c:/marmalade/6.0/s3e/h/std/c++/cmath'
p2075
g1079
g1083
tp2076
sS'uio.h'
p2077
(S'c:/marmalade/6.0/s3e/h/std/sys/uio.h'
p2078
g1161
g1083
tp2079
sS'IwUncopyable.h'
p2080
(g951
g1099
g896
tp2081
ssS'tests'
p2082
(lp2083
sS'project_name'
p2084
g233
sS'root_file'
p2085
g99
sS'current_root'
p2086
S'C:/Users/Flash/Documents/mobile_workspace/GardenWars'
p2087
sS'dependencies'
p2088
(lp2089
sS'include_paths'
p2090
(lp2091
Vc:/users/flash/appdata/roaming/marmalade/packages/6.0.1/libjpeg_6b/h
p2092
aVc:/users/flash/appdata/roaming/marmalade/packages/6.0.1/zlib_1.2.4/h
p2093
aVc:/users/flash/appdata/roaming/marmalade/packages/6.0.1/libpng_1.2.34/h
p2094
aS'c:/marmalade/6.0/modules/iwutil/h'
p2095
aS'c:/marmalade/6.0/modules/iwgeom/h'
p2096
aS'c:/marmalade/6.0/modules/iwresmanager/h'
p2097
aS'c:/marmalade/6.0/modules/iwgl/h'
p2098
aS'c:/marmalade/6.0/modules/iwgx/h'
p2099
aS'c:/marmalade/6.0/modules/iwgxfont/h'
p2100
aS'c:/marmalade/6.0/modules/iw2d/h'
p2101
aS'C:/Users/Flash/Documents/mobile_workspace/GardenWars/source'
p2102
aS'c:/marmalade/6.0/s3e/h'
p2103
aS'c:/marmalade/6.0/s3e/h/ext'
p2104
aS'c:/marmalade/6.0/s3e/h/std'
p2105
aS'c:/marmalade/6.0/s3e/h/std/c++'
p2106
aS'c:/marmalade/6.0/s3e/h/ext_legacy'
p2107
aS'c:/marmalade/6.0/s3e/h/legacy'
p2108
asS'weak_frameworks'
p2109
(lp2110
sS'extprojects'
p2111
(dp2112
sg435
(dp2113
g429
(lp2114
(S'C:/Users/Flash/Documents/mobile_workspace/GardenWars/data/grass.png'
p2115
S'grass.png'
p2116
I0
tp2117
a(S'C:/Users/Flash/Documents/mobile_workspace/GardenWars/data/stone.png'
p2118
S'stone.png'
p2119
I0
tp2120
a(S'C:/Users/Flash/Documents/mobile_workspace/GardenWars/data/dirt.png'
p2121
S'dirt.png'
p2122
I0
tp2123
a(S'C:/Users/Flash/Documents/mobile_workspace/GardenWars/data/character.png'
p2124
S'character.png'
p2125
I0
tp2126
a(S'C:/Users/Flash/Documents/mobile_workspace/GardenWars/data/star.png'
p2127
S'star.png'
p2128
I0
tp2129
assS'macro_types'
p2130
(dp2131
g383
I1
sg384
I0
sg385
I0
sg386
I0
sg387
I0
sg388
I0
sg390
I0
sg391
I0
sg392
I0
sg393
I0
sg395
I0
sg397
I0
sg398
I0
sg399
I0
sg400
I0
sg401
I1
sg402
I0
sg403
I0
sg404
I0
sg405
I01
sg406
I1
sg407
I0
sg408
I0
sg409
I0
ssS'commands'
p2132
(lp2133
sg437
(g691
S'VC10'
p2134
S'X86ARM'
p2135
tp2136
sS'build_libs'
p2137
(dp2138
sS'frameworks'
p2139
(lp2140
sS'environ'
p2141
(dp2142
sS'target_name_debug'
p2143
g233
sS'builders'
p2144
(dp2145
S'.S'
p2146
(dp2147
S'rvct'
p2148
(lp2149
S'.obj'
p2150
aS'echo ARM Assembling(RVCT) ${SOURCE}...'
p2151
aS'c:/marmalade/6.0/s3e\\rvct\\bin\\armasm -o ${TARGET} ${SOURCE}'
p2152
asg327
(lp2153
g2150
aS'echo ARM Assembling(GCC) ${SOURCE}...'
p2154
aS'c:/marmalade/6.0/s3e\\gcc\\bin\\arm-none-eabi-gcc -c -o ${TARGET} ${SOURCE}'
p2155
asS'ppu'
p2156
(lp2157
S'.a'
p2158
aS'echo PPU Assembling(SNC) ${SOURCE}...'
p2159
aS'c:/marmalade/6.0/s3e\\rvct\\bin\\armasm -o ${TARGET} ${SOURCE}'
p2160
assS'.s'
p2161
g2147
sS'.vp'
p2162
(lp2163
NaS'"C:/Marmalade/6.0/s3e/python/python.exe" "c:/marmalade/6.0/modules/iwgx/tools/compile_shaders.py" ${SOURCE}'
p2164
assg439
g0
sbtp2165
.